

Microchip MPLAB XC8 Assembler V2.40 build 20220703182018 
                                                                                               Sat Nov 19 02:43:48 2022

Microchip MPLAB XC8 C Compiler v2.40 (Free license) build 20220703182018 Og1 
     1                           	processor	16F887
     2                           	pagewidth 120
     3                           	opt	flic
     4                           	psect	cinit,global,class=CODE,merge=1,delta=2
     5                           	psect	bssCOMMON,global,class=COMMON,space=1,delta=1,noexec
     6                           	psect	bssBANK0,global,class=BANK0,space=1,delta=1,noexec
     7                           	psect	bssBANK1,global,class=BANK1,space=1,delta=1,noexec
     8                           	psect	cstackBANK1,global,class=BANK1,space=1,delta=1,noexec
     9                           	psect	cstackCOMMON,global,class=COMMON,space=1,delta=1,noexec
    10                           	psect	cstackBANK0,global,class=BANK0,space=1,delta=1,noexec
    11                           	psect	maintext,global,class=CODE,split=1,delta=2
    12                           	psect	text1,local,class=CODE,merge=1,delta=2
    13                           	psect	text2,local,class=CODE,merge=1,delta=2
    14                           	psect	text3,local,class=CODE,merge=1,delta=2
    15                           	psect	text4,local,class=CODE,merge=1,delta=2
    16                           	psect	text5,local,class=CODE,merge=1,delta=2,group=1
    17                           	psect	text6,local,class=CODE,merge=1,delta=2,group=1
    18                           	psect	text7,local,class=CODE,merge=1,delta=2
    19                           	psect	text8,local,class=CODE,merge=1,delta=2
    20                           	psect	text9,local,class=CODE,merge=1,delta=2,group=1
    21                           	psect	text10,local,class=CODE,merge=1,delta=2,group=1
    22                           	psect	text11,local,class=CODE,merge=1,delta=2,group=1
    23                           	psect	text12,local,class=CODE,merge=1,delta=2,group=1
    24                           	psect	text13,local,class=CODE,merge=1,delta=2,group=1
    25                           	psect	text14,local,class=CODE,merge=1,delta=2
    26                           	psect	intentry,global,class=CODE,delta=2
    27                           	psect	text15,local,class=CODE,merge=1,delta=2
    28                           	psect	idloc,global,abs,ovrld,class=IDLOC,space=5,delta=2,noexec
    29                           	psect	config,global,abs,ovrld,class=CONFIG,space=4,delta=2,noexec
    30                           	dabs	1,0x7E,2
    31     0000                     
    32                           ; Version 2.40
    33                           ; Generated 17/11/2021 GMT
    34                           ; 
    35                           ; Copyright © 2021, Microchip Technology Inc. and its subsidiaries ("Microchip")
    36                           ; All rights reserved.
    37                           ; 
    38                           ; This software is developed by Microchip Technology Inc. and its subsidiaries ("Microch
      +                          ip").
    39                           ; 
    40                           ; Redistribution and use in source and binary forms, with or without modification, are
    41                           ; permitted provided that the following conditions are met:
    42                           ; 
    43                           ;     1. Redistributions of source code must retain the above copyright notice, this lis
      +                          t of
    44                           ;        conditions and the following disclaimer.
    45                           ; 
    46                           ;     2. Redistributions in binary form must reproduce the above copyright notice, this 
      +                          list
    47                           ;        of conditions and the following disclaimer in the documentation and/or other
    48                           ;        materials provided with the distribution. Publication is not required when
    49                           ;        this file is used in an embedded application.
    50                           ; 
    51                           ;     3. Microchip's name may not be used to endorse or promote products derived from th
      +                          is
    52                           ;        software without specific prior written permission.
    53                           ; 
    54                           ; THIS SOFTWARE IS PROVIDED BY MICROCHIP "AS IS" AND ANY EXPRESS OR IMPLIED WARRANTIES,
    55                           ; INCLUDING, BUT NOT LIMITED TO, THE IMPLIED WARRANTIES OF MERCHANTABILITY AND FITNESS F
      +                          OR
    56                           ; PURPOSE ARE DISCLAIMED.  IN NO EVENT SHALL MICROCHIP BE LIABLE FOR ANY DIRECT, INDIREC
      +                          T,
    57                           ; INCIDENTAL, SPECIAL, EXEMPLARY, OR CONSEQUENTIAL DAMAGES (INCLUDING BUT NOT LIMITED TO
    58                           ; PROCUREMENT OF SUBSTITUTE GOODS OR SERVICES; LOSS OF USE, DATA OR PROFITS; OR BUSINESS
    59                           ; INTERRUPTION) HOWSOEVER CAUSED AND ON ANY THEORY OF LIABILITY, WHETHER IN CONTRACT, ST
      +                          RICT
    60                           ; LIABILITY, OR TORT (INCLUDING NEGLIGENCE OR OTHERWISE) ARISING IN ANY WAY OUT OF THE U
      +                          SE OF
    61                           ; THIS SOFTWARE, EVEN IF ADVISED OF THE POSSIBILITY OF SUCH DAMAGE.
    62                           ; 
    63                           ; 
    64                           ; Code-generator required, PIC16F887 Definitions
    65                           ; 
    66                           ; SFR Addresses
    67     0000                     	;# 
    68     0001                     	;# 
    69     0002                     	;# 
    70     0003                     	;# 
    71     0004                     	;# 
    72     0005                     	;# 
    73     0006                     	;# 
    74     0007                     	;# 
    75     0008                     	;# 
    76     0009                     	;# 
    77     000A                     	;# 
    78     000B                     	;# 
    79     000C                     	;# 
    80     000D                     	;# 
    81     000E                     	;# 
    82     000E                     	;# 
    83     000F                     	;# 
    84     0010                     	;# 
    85     0011                     	;# 
    86     0012                     	;# 
    87     0013                     	;# 
    88     0014                     	;# 
    89     0015                     	;# 
    90     0015                     	;# 
    91     0016                     	;# 
    92     0017                     	;# 
    93     0018                     	;# 
    94     0019                     	;# 
    95     001A                     	;# 
    96     001B                     	;# 
    97     001B                     	;# 
    98     001C                     	;# 
    99     001D                     	;# 
   100     001E                     	;# 
   101     001F                     	;# 
   102     0081                     	;# 
   103     0085                     	;# 
   104     0086                     	;# 
   105     0087                     	;# 
   106     0088                     	;# 
   107     0089                     	;# 
   108     008C                     	;# 
   109     008D                     	;# 
   110     008E                     	;# 
   111     008F                     	;# 
   112     0090                     	;# 
   113     0091                     	;# 
   114     0092                     	;# 
   115     0093                     	;# 
   116     0093                     	;# 
   117     0093                     	;# 
   118     0094                     	;# 
   119     0095                     	;# 
   120     0096                     	;# 
   121     0097                     	;# 
   122     0098                     	;# 
   123     0099                     	;# 
   124     009A                     	;# 
   125     009B                     	;# 
   126     009C                     	;# 
   127     009D                     	;# 
   128     009E                     	;# 
   129     009F                     	;# 
   130     0105                     	;# 
   131     0107                     	;# 
   132     0108                     	;# 
   133     0109                     	;# 
   134     010C                     	;# 
   135     010C                     	;# 
   136     010D                     	;# 
   137     010E                     	;# 
   138     010F                     	;# 
   139     0185                     	;# 
   140     0187                     	;# 
   141     0188                     	;# 
   142     0189                     	;# 
   143     018C                     	;# 
   144     018D                     	;# 
   145     0000                     	;# 
   146     0001                     	;# 
   147     0002                     	;# 
   148     0003                     	;# 
   149     0004                     	;# 
   150     0005                     	;# 
   151     0006                     	;# 
   152     0007                     	;# 
   153     0008                     	;# 
   154     0009                     	;# 
   155     000A                     	;# 
   156     000B                     	;# 
   157     000C                     	;# 
   158     000D                     	;# 
   159     000E                     	;# 
   160     000E                     	;# 
   161     000F                     	;# 
   162     0010                     	;# 
   163     0011                     	;# 
   164     0012                     	;# 
   165     0013                     	;# 
   166     0014                     	;# 
   167     0015                     	;# 
   168     0015                     	;# 
   169     0016                     	;# 
   170     0017                     	;# 
   171     0018                     	;# 
   172     0019                     	;# 
   173     001A                     	;# 
   174     001B                     	;# 
   175     001B                     	;# 
   176     001C                     	;# 
   177     001D                     	;# 
   178     001E                     	;# 
   179     001F                     	;# 
   180     0081                     	;# 
   181     0085                     	;# 
   182     0086                     	;# 
   183     0087                     	;# 
   184     0088                     	;# 
   185     0089                     	;# 
   186     008C                     	;# 
   187     008D                     	;# 
   188     008E                     	;# 
   189     008F                     	;# 
   190     0090                     	;# 
   191     0091                     	;# 
   192     0092                     	;# 
   193     0093                     	;# 
   194     0093                     	;# 
   195     0093                     	;# 
   196     0094                     	;# 
   197     0095                     	;# 
   198     0096                     	;# 
   199     0097                     	;# 
   200     0098                     	;# 
   201     0099                     	;# 
   202     009A                     	;# 
   203     009B                     	;# 
   204     009C                     	;# 
   205     009D                     	;# 
   206     009E                     	;# 
   207     009F                     	;# 
   208     0105                     	;# 
   209     0107                     	;# 
   210     0108                     	;# 
   211     0109                     	;# 
   212     010C                     	;# 
   213     010C                     	;# 
   214     010D                     	;# 
   215     010E                     	;# 
   216     010F                     	;# 
   217     0185                     	;# 
   218     0187                     	;# 
   219     0188                     	;# 
   220     0189                     	;# 
   221     018C                     	;# 
   222     018D                     	;# 
   223     0012                     _T2CONbits	set	18
   224     000C                     _PIR1bits	set	12
   225     001D                     _CCP2CONbits	set	29
   226     0017                     _CCP1CONbits	set	23
   227     0008                     _PORTD	set	8
   228     0007                     _PORTC	set	7
   229     0006                     _PORTB	set	6
   230     0005                     _PORTA	set	5
   231     001B                     _CCPR2L	set	27
   232     0015                     _CCPR1L	set	21
   233     001E                     _ADRESH	set	30
   234     001F                     _ADCON0bits	set	31
   235     0008                     _PORTDbits	set	8
   236     0006                     _PORTBbits	set	6
   237     0007                     _PORTCbits	set	7
   238     0001                     _TMR0	set	1
   239     000B                     _INTCONbits	set	11
   240     0066                     _ADIF	set	102
   241     0092                     _PR2	set	146
   242     0087                     _TRISCbits	set	135
   243     009F                     _ADCON1bits	set	159
   244     0085                     _TRISAbits	set	133
   245     008F                     _OSCCONbits	set	143
   246     0096                     _IOCB	set	150
   247     0081                     _OPTION_REGbits	set	129
   248     0088                     _TRISD	set	136
   249     0087                     _TRISC	set	135
   250     0086                     _TRISB	set	134
   251     0085                     _TRISA	set	133
   252     0188                     _ANSELbits	set	392
   253     0189                     _ANSELH	set	393
   254                           
   255                           	psect	cinit
   256     000F                     start_initialization:	
   257                           ; #config settings
   258                           
   259     000F                     __initialization:
   260                           
   261                           ; Clear objects allocated to COMMON
   262     000F  01F5               	clrf	__pbssCOMMON& (0+127)
   263     0010  01F6               	clrf	(__pbssCOMMON+1)& (0+127)
   264     0011  01F7               	clrf	(__pbssCOMMON+2)& (0+127)
   265     0012  01F8               	clrf	(__pbssCOMMON+3)& (0+127)
   266                           
   267                           ; Clear objects allocated to BANK0
   268     0013  1283               	bcf	3,5	;RP0=0, select bank0
   269     0014  1303               	bcf	3,6	;RP1=0, select bank0
   270     0015  01E6               	clrf	__pbssBANK0& (0+127)
   271     0016  01E7               	clrf	(__pbssBANK0+1)& (0+127)
   272     0017  01E8               	clrf	(__pbssBANK0+2)& (0+127)
   273     0018  01E9               	clrf	(__pbssBANK0+3)& (0+127)
   274     0019  01EA               	clrf	(__pbssBANK0+4)& (0+127)
   275     001A  01EB               	clrf	(__pbssBANK0+5)& (0+127)
   276     001B  01EC               	clrf	(__pbssBANK0+6)& (0+127)
   277     001C  01ED               	clrf	(__pbssBANK0+7)& (0+127)
   278     001D  01EE               	clrf	(__pbssBANK0+8)& (0+127)
   279                           
   280                           ; Clear objects allocated to BANK1
   281     001E  1683               	bsf	3,5	;RP0=1, select bank1
   282     001F  1303               	bcf	3,6	;RP1=0, select bank1
   283     0020  01A0               	clrf	__pbssBANK1& (0+127)
   284     0021  01A1               	clrf	(__pbssBANK1+1)& (0+127)
   285     0022  01A2               	clrf	(__pbssBANK1+2)& (0+127)
   286     0023  01A3               	clrf	(__pbssBANK1+3)& (0+127)
   287     0024                     end_of_initialization:	
   288                           ;End of C runtime variable initialization code
   289                           
   290     0024                     __end_of__initialization:
   291     0024  0183               	clrf	3
   292     0025  120A  118A  2DC5   	ljmp	_main	;jump to C main() function
   293                           
   294                           	psect	bssCOMMON
   295     0075                     __pbssCOMMON:
   296     0075                     _SERVO2:
   297     0075                     	ds	2
   298     0077                     _SERVO1:
   299     0077                     	ds	2
   300                           
   301                           	psect	bssBANK0
   302     0066                     __pbssBANK0:
   303     0066                     _ADC4:
   304     0066                     	ds	2
   305     0068                     _ADC3:
   306     0068                     	ds	2
   307     006A                     _ADC2:
   308     006A                     	ds	2
   309     006C                     _ADC1:
   310     006C                     	ds	2
   311     006E                     _MODO:
   312     006E                     	ds	1
   313                           
   314                           	psect	bssBANK1
   315     00A0                     __pbssBANK1:
   316     00A0                     _SERVO4:
   317     00A0                     	ds	2
   318     00A2                     _SERVO3:
   319     00A2                     	ds	2
   320                           
   321                           	psect	cstackBANK1
   322     00A4                     __pcstackBANK1:
   323     00A4                     ?_conv_s1:
   324     00A4                     ?_conv_s2:	
   325                           ; 1 bytes @ 0x0
   326                           
   327     00A4                     conv_s1@valor:	
   328                           ; 1 bytes @ 0x0
   329                           
   330     00A4                     conv_s2@valor:	
   331                           ; 2 bytes @ 0x0
   332                           
   333                           
   334                           ; 2 bytes @ 0x0
   335     00A4                     	ds	2
   336     00A6                     ??_main:
   337                           
   338                           ; 1 bytes @ 0x2
   339     00A6                     	ds	2
   340                           
   341                           	psect	cstackCOMMON
   342     0070                     __pcstackCOMMON:
   343     0070                     ?_estado_alto:
   344     0070                     ?_setup:	
   345                           ; 1 bytes @ 0x0
   346                           
   347     0070                     ?_setupADC:	
   348                           ; 1 bytes @ 0x0
   349                           
   350     0070                     ?_setupPWM:	
   351                           ; 1 bytes @ 0x0
   352                           
   353     0070                     ?_isr:	
   354                           ; 1 bytes @ 0x0
   355                           
   356     0070                     ?_main:	
   357                           ; 1 bytes @ 0x0
   358                           
   359     0070                     estado_alto@seg:	
   360                           ; 1 bytes @ 0x0
   361                           
   362                           
   363                           ; 2 bytes @ 0x0
   364     0070                     	ds	2
   365     0072                     ??_estado_alto:
   366     0072                     ??_isr:	
   367                           ; 1 bytes @ 0x2
   368                           
   369                           
   370                           ; 1 bytes @ 0x2
   371     0072                     	ds	3
   372     0075                     ??_setup:
   373     0075                     ??_setupPWM:	
   374                           ; 1 bytes @ 0x5
   375                           
   376     0075                     ??_conv_s1:	
   377                           ; 1 bytes @ 0x5
   378                           
   379     0075                     ??_conv_s2:	
   380                           ; 1 bytes @ 0x5
   381                           
   382     0075                     ??___wmul:	
   383                           ; 1 bytes @ 0x5
   384                           
   385                           
   386                           	psect	cstackBANK0
   387     0020                     __pcstackBANK0:	
   388                           ; 1 bytes @ 0x5
   389                           
   390     0020                     ??_setupADC:
   391     0020                     ?__Umul8_16:	
   392                           ; 1 bytes @ 0x0
   393                           
   394     0020                     ?___wmul:	
   395                           ; 2 bytes @ 0x0
   396                           
   397     0020                     ?___xxtofl:	
   398                           ; 2 bytes @ 0x0
   399                           
   400     0020                     __Umul8_16@multiplicand:	
   401                           ; 4 bytes @ 0x0
   402                           
   403     0020                     ___wmul@multiplier:	
   404                           ; 1 bytes @ 0x0
   405                           
   406     0020                     ___xxtofl@val:	
   407                           ; 2 bytes @ 0x0
   408                           
   409                           
   410                           ; 4 bytes @ 0x0
   411     0020                     	ds	2
   412     0022                     ??__Umul8_16:
   413     0022                     ___wmul@multiplicand:	
   414                           ; 1 bytes @ 0x2
   415                           
   416                           
   417                           ; 2 bytes @ 0x2
   418     0022                     	ds	2
   419     0024                     ??___xxtofl:
   420     0024                     ___wmul@product:	
   421                           ; 1 bytes @ 0x4
   422                           
   423     0024                     __Umul8_16@product:	
   424                           ; 2 bytes @ 0x4
   425                           
   426                           
   427                           ; 2 bytes @ 0x4
   428     0024                     	ds	2
   429     0026                     ?___awdiv:
   430     0026                     ___awdiv@divisor:	
   431                           ; 2 bytes @ 0x6
   432                           
   433     0026                     __Umul8_16@word_mpld:	
   434                           ; 2 bytes @ 0x6
   435                           
   436                           
   437                           ; 2 bytes @ 0x6
   438     0026                     	ds	2
   439     0028                     __Umul8_16@multiplier:
   440     0028                     ___xxtofl@sign:	
   441                           ; 1 bytes @ 0x8
   442                           
   443     0028                     ___awdiv@dividend:	
   444                           ; 1 bytes @ 0x8
   445                           
   446                           
   447                           ; 2 bytes @ 0x8
   448     0028                     	ds	1
   449     0029                     ___xxtofl@exp:
   450                           
   451                           ; 1 bytes @ 0x9
   452     0029                     	ds	1
   453     002A                     ??___awdiv:
   454     002A                     ___xxtofl@arg:	
   455                           ; 1 bytes @ 0xA
   456                           
   457                           
   458                           ; 4 bytes @ 0xA
   459     002A                     	ds	1
   460     002B                     ___awdiv@counter:
   461                           
   462                           ; 1 bytes @ 0xB
   463     002B                     	ds	1
   464     002C                     ___awdiv@sign:
   465                           
   466                           ; 1 bytes @ 0xC
   467     002C                     	ds	1
   468     002D                     ___awdiv@quotient:
   469                           
   470                           ; 2 bytes @ 0xD
   471     002D                     	ds	1
   472     002E                     ?___flmul:
   473     002E                     ___flmul@b:	
   474                           ; 4 bytes @ 0xE
   475                           
   476                           
   477                           ; 4 bytes @ 0xE
   478     002E                     	ds	1
   479     002F                     ?_map:
   480     002F                     map@entrada_min:	
   481                           ; 2 bytes @ 0xF
   482                           
   483                           
   484                           ; 2 bytes @ 0xF
   485     002F                     	ds	2
   486     0031                     map@entrada_max:
   487                           
   488                           ; 2 bytes @ 0x11
   489     0031                     	ds	1
   490     0032                     ___flmul@a:
   491                           
   492                           ; 4 bytes @ 0x12
   493     0032                     	ds	1
   494     0033                     map@salida_min:
   495                           
   496                           ; 2 bytes @ 0x13
   497     0033                     	ds	2
   498     0035                     map@salida_max:
   499                           
   500                           ; 2 bytes @ 0x15
   501     0035                     	ds	1
   502     0036                     ??___flmul:
   503                           
   504                           ; 1 bytes @ 0x16
   505     0036                     	ds	1
   506     0037                     ??_map:
   507                           
   508                           ; 1 bytes @ 0x17
   509     0037                     	ds	3
   510     003A                     map@ADC:
   511                           
   512                           ; 1 bytes @ 0x1A
   513     003A                     	ds	1
   514     003B                     ___flmul@sign:
   515                           
   516                           ; 1 bytes @ 0x1B
   517     003B                     	ds	1
   518     003C                     ___flmul@aexp:
   519                           
   520                           ; 1 bytes @ 0x1C
   521     003C                     	ds	1
   522     003D                     ___flmul@grs:
   523                           
   524                           ; 4 bytes @ 0x1D
   525     003D                     	ds	4
   526     0041                     ___flmul@bexp:
   527                           
   528                           ; 1 bytes @ 0x21
   529     0041                     	ds	1
   530     0042                     ___flmul@prod:
   531                           
   532                           ; 4 bytes @ 0x22
   533     0042                     	ds	4
   534     0046                     ___flmul@temp:
   535                           
   536                           ; 2 bytes @ 0x26
   537     0046                     	ds	2
   538     0048                     ?___fladd:
   539     0048                     ___fladd@b:	
   540                           ; 4 bytes @ 0x28
   541                           
   542                           
   543                           ; 4 bytes @ 0x28
   544     0048                     	ds	4
   545     004C                     ___fladd@a:
   546                           
   547                           ; 4 bytes @ 0x2C
   548     004C                     	ds	4
   549     0050                     ??___fladd:
   550                           
   551                           ; 1 bytes @ 0x30
   552     0050                     	ds	8
   553     0058                     ___fladd@signs:
   554                           
   555                           ; 1 bytes @ 0x38
   556     0058                     	ds	1
   557     0059                     ___fladd@aexp:
   558                           
   559                           ; 1 bytes @ 0x39
   560     0059                     	ds	1
   561     005A                     ___fladd@bexp:
   562                           
   563                           ; 1 bytes @ 0x3A
   564     005A                     	ds	1
   565     005B                     ___fladd@grs:
   566                           
   567                           ; 1 bytes @ 0x3B
   568     005B                     	ds	1
   569     005C                     ?___fltol:
   570     005C                     ___fltol@f1:	
   571                           ; 4 bytes @ 0x3C
   572                           
   573                           
   574                           ; 4 bytes @ 0x3C
   575     005C                     	ds	4
   576     0060                     ??___fltol:
   577                           
   578                           ; 1 bytes @ 0x40
   579     0060                     	ds	4
   580     0064                     ___fltol@sign1:
   581                           
   582                           ; 1 bytes @ 0x44
   583     0064                     	ds	1
   584     0065                     ___fltol@exp1:
   585                           
   586                           ; 1 bytes @ 0x45
   587     0065                     	ds	1
   588                           
   589                           	psect	maintext
   590     05C5                     __pmaintext:	
   591 ;;
   592 ;;Main: autosize = 0, tempsize = 2, incstack = 0, save=0
   593 ;;
   594 ;; *************** function _main *****************
   595 ;; Defined at:
   596 ;;		line 106 in file "main.c"
   597 ;; Parameters:    Size  Location     Type
   598 ;;		None
   599 ;; Auto vars:     Size  Location     Type
   600 ;;		None
   601 ;; Return value:  Size  Location     Type
   602 ;;                  1    wreg      void 
   603 ;; Registers used:
   604 ;;		wreg, status,2, status,0, btemp+1, pclath, cstack
   605 ;; Tracked objects:
   606 ;;		On entry : B00/0
   607 ;;		On exit  : 0/0
   608 ;;		Unchanged: 0/0
   609 ;; Data sizes:     COMMON   BANK0   BANK1   BANK3   BANK2
   610 ;;      Params:         0       0       0       0       0
   611 ;;      Locals:         0       0       0       0       0
   612 ;;      Temps:          0       0       2       0       0
   613 ;;      Totals:         0       0       2       0       0
   614 ;;Total ram usage:        2 bytes
   615 ;; Hardware stack levels required when called: 5
   616 ;; This function calls:
   617 ;;		_conv_s1
   618 ;;		_conv_s2
   619 ;;		_map
   620 ;;		_setup
   621 ;;		_setupADC
   622 ;;		_setupPWM
   623 ;; This function is called by:
   624 ;;		Startup code after reset
   625 ;; This function uses a non-reentrant model
   626 ;;
   627                           
   628     05C5                     _main:	
   629                           ;psect for function _main
   630                           
   631     05C5                     l2307:	
   632                           ;incstack = 0
   633                           ; Regs used in _main: [wreg+status,2+status,0+btemp+1+pclath+cstack]
   634                           
   635                           
   636                           ;main.c: 108:     setup();
   637     05C5  120A  158A  25D0  120A  118A  	fcall	_setup
   638                           
   639                           ;main.c: 109:     setupADC();
   640     05CA  120A  158A  25FB  120A  118A  	fcall	_setupADC
   641                           
   642                           ;main.c: 110:     setupPWM();
   643     05CF  120A  158A  255B  120A  118A  	fcall	_setupPWM
   644     05D4                     l2309:
   645                           
   646                           ;main.c: 113:     {;main.c: 118:         if (MODO == 0)
   647     05D4  1283               	bcf	3,5	;RP0=0, select bank0
   648     05D5  1303               	bcf	3,6	;RP1=0, select bank0
   649     05D6  086E               	movf	_MODO,w
   650     05D7  1D03               	btfss	3,2
   651     05D8  2DDA               	goto	u3331
   652     05D9  2DDB               	goto	u3330
   653     05DA                     u3331:
   654     05DA  2EE6               	goto	l2365
   655     05DB                     u3330:
   656     05DB                     l2311:
   657                           
   658                           ;main.c: 119:         {;main.c: 120:             PORTDbits.RD0 = 1;
   659     05DB  1408               	bsf	8,0	;volatile
   660                           
   661                           ;main.c: 121:             PORTDbits.RD1 = 0;
   662     05DC  1088               	bcf	8,1	;volatile
   663                           
   664                           ;main.c: 122:             PORTDbits.RD2 = 0;
   665     05DD  1108               	bcf	8,2	;volatile
   666     05DE                     l2313:
   667                           
   668                           ;main.c: 128:             ADCON0bits.CHS = 0b0000;
   669     05DE  30C3               	movlw	-61
   670     05DF  059F               	andwf	31,f	;volatile
   671     05E0                     l2315:
   672                           
   673                           ;main.c: 130:             _delay((unsigned long)((100)*(500000/4000000.0)));
   674     05E0  3003               	movlw	3
   675     05E1  1683               	bsf	3,5	;RP0=1, select bank1
   676     05E2  1303               	bcf	3,6	;RP1=0, select bank1
   677     05E3  00A6               	movwf	??_main^(0+128)
   678     05E4                     u3417:
   679     05E4  0BA6               	decfsz	??_main^(0+128),f
   680     05E5  2DE4               	goto	u3417
   681     05E6                     l2317:
   682                           
   683                           ;main.c: 132:             ADCON0bits.GO = 1;
   684     05E6  1283               	bcf	3,5	;RP0=0, select bank0
   685     05E7  1303               	bcf	3,6	;RP1=0, select bank0
   686     05E8  149F               	bsf	31,1	;volatile
   687     05E9                     l111:	
   688                           ;main.c: 135:             }
   689                           
   690                           
   691                           ;main.c: 133:             while(ADCON0bits.GO == 1){
   692     05E9  189F               	btfsc	31,1	;volatile
   693     05EA  2DEC               	goto	u3341
   694     05EB  2DED               	goto	u3340
   695     05EC                     u3341:
   696     05EC  2DE9               	goto	l111
   697     05ED                     u3340:
   698     05ED                     l113:
   699                           
   700                           ;main.c: 137:             ADIF = 0;
   701     05ED  130C               	bcf	12,6	;volatile
   702     05EE                     l2319:
   703                           
   704                           ;main.c: 138:             ADC1 = ADRESH;
   705     05EE  081E               	movf	30,w	;volatile
   706     05EF  1683               	bsf	3,5	;RP0=1, select bank1
   707     05F0  1303               	bcf	3,6	;RP1=0, select bank1
   708     05F1  00A6               	movwf	??_main^(0+128)
   709     05F2  01A7               	clrf	(??_main^(0+128)+1)
   710     05F3  0826               	movf	??_main^(0+128),w
   711     05F4  1283               	bcf	3,5	;RP0=0, select bank0
   712     05F5  1303               	bcf	3,6	;RP1=0, select bank0
   713     05F6  00EC               	movwf	_ADC1
   714     05F7  1683               	bsf	3,5	;RP0=1, select bank1
   715     05F8  1303               	bcf	3,6	;RP1=0, select bank1
   716     05F9  0827               	movf	(??_main+1)^(0+128),w
   717     05FA  1283               	bcf	3,5	;RP0=0, select bank0
   718     05FB  1303               	bcf	3,6	;RP1=0, select bank0
   719     05FC  00ED               	movwf	_ADC1+1
   720     05FD                     l2321:
   721                           
   722                           ;main.c: 139:             conv_s1 (ADC1);
   723     05FD  086D               	movf	_ADC1+1,w
   724     05FE  1683               	bsf	3,5	;RP0=1, select bank1
   725     05FF  1303               	bcf	3,6	;RP1=0, select bank1
   726     0600  00A5               	movwf	(conv_s1@valor+1)^(0+128)
   727     0601  1283               	bcf	3,5	;RP0=0, select bank0
   728     0602  1303               	bcf	3,6	;RP1=0, select bank0
   729     0603  086C               	movf	_ADC1,w
   730     0604  1683               	bsf	3,5	;RP0=1, select bank1
   731     0605  1303               	bcf	3,6	;RP1=0, select bank1
   732     0606  00A4               	movwf	conv_s1@valor^(0+128)
   733     0607  120A  158A  2669  120A  118A  	fcall	_conv_s1
   734     060C                     l2323:
   735                           
   736                           ;main.c: 140:             CCPR1L = SERVO1;
   737     060C  0877               	movf	_SERVO1,w
   738     060D  1283               	bcf	3,5	;RP0=0, select bank0
   739     060E  1303               	bcf	3,6	;RP1=0, select bank0
   740     060F  0095               	movwf	21	;volatile
   741     0610                     l2325:
   742                           
   743                           ;main.c: 142:             _delay((unsigned long)((100)*(500000/4000000.0)));
   744     0610  3003               	movlw	3
   745     0611  1683               	bsf	3,5	;RP0=1, select bank1
   746     0612  1303               	bcf	3,6	;RP1=0, select bank1
   747     0613  00A6               	movwf	??_main^(0+128)
   748     0614                     u3427:
   749     0614  0BA6               	decfsz	??_main^(0+128),f
   750     0615  2E14               	goto	u3427
   751     0616                     l2327:
   752                           
   753                           ;main.c: 148:             ADCON0bits.CHS = 0b0001;
   754     0616  1283               	bcf	3,5	;RP0=0, select bank0
   755     0617  1303               	bcf	3,6	;RP1=0, select bank0
   756     0618  081F               	movf	31,w	;volatile
   757     0619  39C3               	andlw	-61
   758     061A  3804               	iorlw	4
   759     061B  009F               	movwf	31	;volatile
   760     061C                     l2329:
   761                           
   762                           ;main.c: 150:             _delay((unsigned long)((100)*(500000/4000000.0)));
   763     061C  3003               	movlw	3
   764     061D  1683               	bsf	3,5	;RP0=1, select bank1
   765     061E  1303               	bcf	3,6	;RP1=0, select bank1
   766     061F  00A6               	movwf	??_main^(0+128)
   767     0620                     u3437:
   768     0620  0BA6               	decfsz	??_main^(0+128),f
   769     0621  2E20               	goto	u3437
   770     0622                     l2331:
   771                           
   772                           ;main.c: 152:             ADCON0bits.GO = 1;
   773     0622  1283               	bcf	3,5	;RP0=0, select bank0
   774     0623  1303               	bcf	3,6	;RP1=0, select bank0
   775     0624  149F               	bsf	31,1	;volatile
   776     0625                     l114:	
   777                           ;main.c: 155:             }
   778                           
   779                           
   780                           ;main.c: 153:             while(ADCON0bits.GO == 1){
   781     0625  189F               	btfsc	31,1	;volatile
   782     0626  2E28               	goto	u3351
   783     0627  2E29               	goto	u3350
   784     0628                     u3351:
   785     0628  2E25               	goto	l114
   786     0629                     u3350:
   787     0629                     l116:
   788                           
   789                           ;main.c: 157:             ADIF = 0;
   790     0629  130C               	bcf	12,6	;volatile
   791     062A                     l2333:
   792                           
   793                           ;main.c: 158:             ADC2 = ADRESH;
   794     062A  081E               	movf	30,w	;volatile
   795     062B  1683               	bsf	3,5	;RP0=1, select bank1
   796     062C  1303               	bcf	3,6	;RP1=0, select bank1
   797     062D  00A6               	movwf	??_main^(0+128)
   798     062E  01A7               	clrf	(??_main^(0+128)+1)
   799     062F  0826               	movf	??_main^(0+128),w
   800     0630  1283               	bcf	3,5	;RP0=0, select bank0
   801     0631  1303               	bcf	3,6	;RP1=0, select bank0
   802     0632  00EA               	movwf	_ADC2
   803     0633  1683               	bsf	3,5	;RP0=1, select bank1
   804     0634  1303               	bcf	3,6	;RP1=0, select bank1
   805     0635  0827               	movf	(??_main+1)^(0+128),w
   806     0636  1283               	bcf	3,5	;RP0=0, select bank0
   807     0637  1303               	bcf	3,6	;RP1=0, select bank0
   808     0638  00EB               	movwf	_ADC2+1
   809     0639                     l2335:
   810                           
   811                           ;main.c: 159:             conv_s2 (ADC2);
   812     0639  086B               	movf	_ADC2+1,w
   813     063A  1683               	bsf	3,5	;RP0=1, select bank1
   814     063B  1303               	bcf	3,6	;RP1=0, select bank1
   815     063C  00A5               	movwf	(conv_s2@valor+1)^(0+128)
   816     063D  1283               	bcf	3,5	;RP0=0, select bank0
   817     063E  1303               	bcf	3,6	;RP1=0, select bank0
   818     063F  086A               	movf	_ADC2,w
   819     0640  1683               	bsf	3,5	;RP0=1, select bank1
   820     0641  1303               	bcf	3,6	;RP1=0, select bank1
   821     0642  00A4               	movwf	conv_s2@valor^(0+128)
   822     0643  120A  158A  26C4  120A  118A  	fcall	_conv_s2
   823     0648                     l2337:
   824                           
   825                           ;main.c: 160:             CCPR2L = SERVO2;
   826     0648  0875               	movf	_SERVO2,w
   827     0649  1283               	bcf	3,5	;RP0=0, select bank0
   828     064A  1303               	bcf	3,6	;RP1=0, select bank0
   829     064B  009B               	movwf	27	;volatile
   830     064C                     l2339:
   831                           
   832                           ;main.c: 162:             _delay((unsigned long)((100)*(500000/4000000.0)));
   833     064C  3003               	movlw	3
   834     064D  1683               	bsf	3,5	;RP0=1, select bank1
   835     064E  1303               	bcf	3,6	;RP1=0, select bank1
   836     064F  00A6               	movwf	??_main^(0+128)
   837     0650                     u3447:
   838     0650  0BA6               	decfsz	??_main^(0+128),f
   839     0651  2E50               	goto	u3447
   840     0652                     l2341:
   841                           
   842                           ;main.c: 168:             ADCON0bits.CHS = 0b0010;
   843     0652  1283               	bcf	3,5	;RP0=0, select bank0
   844     0653  1303               	bcf	3,6	;RP1=0, select bank0
   845     0654  081F               	movf	31,w	;volatile
   846     0655  39C3               	andlw	-61
   847     0656  3808               	iorlw	8
   848     0657  009F               	movwf	31	;volatile
   849     0658                     l2343:
   850                           
   851                           ;main.c: 170:             _delay((unsigned long)((100)*(500000/4000000.0)));
   852     0658  3003               	movlw	3
   853     0659  1683               	bsf	3,5	;RP0=1, select bank1
   854     065A  1303               	bcf	3,6	;RP1=0, select bank1
   855     065B  00A6               	movwf	??_main^(0+128)
   856     065C                     u3457:
   857     065C  0BA6               	decfsz	??_main^(0+128),f
   858     065D  2E5C               	goto	u3457
   859     065E                     l2345:
   860                           
   861                           ;main.c: 172:             ADCON0bits.GO = 1;
   862     065E  1283               	bcf	3,5	;RP0=0, select bank0
   863     065F  1303               	bcf	3,6	;RP1=0, select bank0
   864     0660  149F               	bsf	31,1	;volatile
   865     0661                     l117:	
   866                           ;main.c: 175:             }
   867                           
   868                           
   869                           ;main.c: 173:             while(ADCON0bits.GO == 1){
   870     0661  189F               	btfsc	31,1	;volatile
   871     0662  2E64               	goto	u3361
   872     0663  2E65               	goto	u3360
   873     0664                     u3361:
   874     0664  2E61               	goto	l117
   875     0665                     u3360:
   876     0665                     l119:
   877                           
   878                           ;main.c: 176:             ADIF = 0;
   879     0665  130C               	bcf	12,6	;volatile
   880     0666                     l2347:
   881                           
   882                           ;main.c: 177:             ADC3 = ADRESH;
   883     0666  081E               	movf	30,w	;volatile
   884     0667  1683               	bsf	3,5	;RP0=1, select bank1
   885     0668  1303               	bcf	3,6	;RP1=0, select bank1
   886     0669  00A6               	movwf	??_main^(0+128)
   887     066A  01A7               	clrf	(??_main^(0+128)+1)
   888     066B  0826               	movf	??_main^(0+128),w
   889     066C  1283               	bcf	3,5	;RP0=0, select bank0
   890     066D  1303               	bcf	3,6	;RP1=0, select bank0
   891     066E  00E8               	movwf	_ADC3
   892     066F  1683               	bsf	3,5	;RP0=1, select bank1
   893     0670  1303               	bcf	3,6	;RP1=0, select bank1
   894     0671  0827               	movf	(??_main+1)^(0+128),w
   895     0672  1283               	bcf	3,5	;RP0=0, select bank0
   896     0673  1303               	bcf	3,6	;RP1=0, select bank0
   897     0674  00E9               	movwf	_ADC3+1
   898     0675                     l2349:
   899                           
   900                           ;main.c: 179:             SERVO3 = map(ADC3, 0, 255, 5, 17);
   901     0675  3000               	movlw	0
   902     0676  00AF               	movwf	map@entrada_min
   903     0677  00B0               	movwf	map@entrada_min+1
   904     0678  30FF               	movlw	255
   905     0679  00B1               	movwf	map@entrada_max
   906     067A  3000               	movlw	0
   907     067B  00B2               	movwf	map@entrada_max+1
   908     067C  3005               	movlw	5
   909     067D  00B3               	movwf	map@salida_min
   910     067E  3000               	movlw	0
   911     067F  00B4               	movwf	map@salida_min+1
   912     0680  3011               	movlw	17
   913     0681  00B5               	movwf	map@salida_max
   914     0682  3000               	movlw	0
   915     0683  00B6               	movwf	map@salida_max+1
   916     0684  0868               	movf	_ADC3,w
   917     0685  120A  158A  262E  120A  118A  	fcall	_map
   918     068A  1283               	bcf	3,5	;RP0=0, select bank0
   919     068B  1303               	bcf	3,6	;RP1=0, select bank0
   920     068C  0830               	movf	?_map+1,w
   921     068D  1683               	bsf	3,5	;RP0=1, select bank1
   922     068E  1303               	bcf	3,6	;RP1=0, select bank1
   923     068F  00A3               	movwf	(_SERVO3+1)^(0+128)
   924     0690  1283               	bcf	3,5	;RP0=0, select bank0
   925     0691  1303               	bcf	3,6	;RP1=0, select bank0
   926     0692  082F               	movf	?_map,w
   927     0693  1683               	bsf	3,5	;RP0=1, select bank1
   928     0694  1303               	bcf	3,6	;RP1=0, select bank1
   929     0695  00A2               	movwf	_SERVO3^(0+128)
   930     0696                     l2351:
   931                           
   932                           ;main.c: 181:             _delay((unsigned long)((100)*(500000/4000000.0)));
   933     0696  3003               	movlw	3
   934     0697  1683               	bsf	3,5	;RP0=1, select bank1
   935     0698  1303               	bcf	3,6	;RP1=0, select bank1
   936     0699  00A6               	movwf	??_main^(0+128)
   937     069A                     u3467:
   938     069A  0BA6               	decfsz	??_main^(0+128),f
   939     069B  2E9A               	goto	u3467
   940     069C                     l2353:
   941                           
   942                           ;main.c: 187:             ADCON0bits.CHS = 0b0011;
   943     069C  1283               	bcf	3,5	;RP0=0, select bank0
   944     069D  1303               	bcf	3,6	;RP1=0, select bank0
   945     069E  081F               	movf	31,w	;volatile
   946     069F  39C3               	andlw	-61
   947     06A0  380C               	iorlw	12
   948     06A1  009F               	movwf	31	;volatile
   949     06A2                     l2355:
   950                           
   951                           ;main.c: 189:             _delay((unsigned long)((100)*(500000/4000000.0)));
   952     06A2  3003               	movlw	3
   953     06A3  1683               	bsf	3,5	;RP0=1, select bank1
   954     06A4  1303               	bcf	3,6	;RP1=0, select bank1
   955     06A5  00A6               	movwf	??_main^(0+128)
   956     06A6                     u3477:
   957     06A6  0BA6               	decfsz	??_main^(0+128),f
   958     06A7  2EA6               	goto	u3477
   959     06A8                     l2357:
   960                           
   961                           ;main.c: 191:             ADCON0bits.GO = 1;
   962     06A8  1283               	bcf	3,5	;RP0=0, select bank0
   963     06A9  1303               	bcf	3,6	;RP1=0, select bank0
   964     06AA  149F               	bsf	31,1	;volatile
   965     06AB                     l120:	
   966                           ;main.c: 194:             }
   967                           
   968                           
   969                           ;main.c: 192:             while(ADCON0bits.GO == 1){
   970     06AB  189F               	btfsc	31,1	;volatile
   971     06AC  2EAE               	goto	u3371
   972     06AD  2EAF               	goto	u3370
   973     06AE                     u3371:
   974     06AE  2EAB               	goto	l120
   975     06AF                     u3370:
   976     06AF                     l122:
   977                           
   978                           ;main.c: 195:             ADIF = 0;
   979     06AF  130C               	bcf	12,6	;volatile
   980     06B0                     l2359:
   981                           
   982                           ;main.c: 196:             ADC4 = ADRESH;
   983     06B0  081E               	movf	30,w	;volatile
   984     06B1  1683               	bsf	3,5	;RP0=1, select bank1
   985     06B2  1303               	bcf	3,6	;RP1=0, select bank1
   986     06B3  00A6               	movwf	??_main^(0+128)
   987     06B4  01A7               	clrf	(??_main^(0+128)+1)
   988     06B5  0826               	movf	??_main^(0+128),w
   989     06B6  1283               	bcf	3,5	;RP0=0, select bank0
   990     06B7  1303               	bcf	3,6	;RP1=0, select bank0
   991     06B8  00E6               	movwf	_ADC4
   992     06B9  1683               	bsf	3,5	;RP0=1, select bank1
   993     06BA  1303               	bcf	3,6	;RP1=0, select bank1
   994     06BB  0827               	movf	(??_main+1)^(0+128),w
   995     06BC  1283               	bcf	3,5	;RP0=0, select bank0
   996     06BD  1303               	bcf	3,6	;RP1=0, select bank0
   997     06BE  00E7               	movwf	_ADC4+1
   998     06BF                     l2361:
   999                           
  1000                           ;main.c: 198:             SERVO4 = map(ADC4, 0, 255, 5, 17);
  1001     06BF  3000               	movlw	0
  1002     06C0  00AF               	movwf	map@entrada_min
  1003     06C1  00B0               	movwf	map@entrada_min+1
  1004     06C2  30FF               	movlw	255
  1005     06C3  00B1               	movwf	map@entrada_max
  1006     06C4  3000               	movlw	0
  1007     06C5  00B2               	movwf	map@entrada_max+1
  1008     06C6  3005               	movlw	5
  1009     06C7  00B3               	movwf	map@salida_min
  1010     06C8  3000               	movlw	0
  1011     06C9  00B4               	movwf	map@salida_min+1
  1012     06CA  3011               	movlw	17
  1013     06CB  00B5               	movwf	map@salida_max
  1014     06CC  3000               	movlw	0
  1015     06CD  00B6               	movwf	map@salida_max+1
  1016     06CE  0866               	movf	_ADC4,w
  1017     06CF  120A  158A  262E  120A  118A  	fcall	_map
  1018     06D4  1283               	bcf	3,5	;RP0=0, select bank0
  1019     06D5  1303               	bcf	3,6	;RP1=0, select bank0
  1020     06D6  0830               	movf	?_map+1,w
  1021     06D7  1683               	bsf	3,5	;RP0=1, select bank1
  1022     06D8  1303               	bcf	3,6	;RP1=0, select bank1
  1023     06D9  00A1               	movwf	(_SERVO4+1)^(0+128)
  1024     06DA  1283               	bcf	3,5	;RP0=0, select bank0
  1025     06DB  1303               	bcf	3,6	;RP1=0, select bank0
  1026     06DC  082F               	movf	?_map,w
  1027     06DD  1683               	bsf	3,5	;RP0=1, select bank1
  1028     06DE  1303               	bcf	3,6	;RP1=0, select bank1
  1029     06DF  00A0               	movwf	_SERVO4^(0+128)
  1030     06E0                     l2363:
  1031                           
  1032                           ;main.c: 200:             _delay((unsigned long)((100)*(500000/4000000.0)));
  1033     06E0  3003               	movlw	3
  1034     06E1  1683               	bsf	3,5	;RP0=1, select bank1
  1035     06E2  1303               	bcf	3,6	;RP1=0, select bank1
  1036     06E3  00A6               	movwf	??_main^(0+128)
  1037     06E4                     u3487:
  1038     06E4  0BA6               	decfsz	??_main^(0+128),f
  1039     06E5  2EE4               	goto	u3487
  1040     06E6                     l2365:
  1041                           
  1042                           ;main.c: 207:         if (MODO == 1)
  1043     06E6  1283               	bcf	3,5	;RP0=0, select bank0
  1044     06E7  1303               	bcf	3,6	;RP1=0, select bank0
  1045     06E8  036E               	decf	_MODO,w
  1046     06E9  1D03               	btfss	3,2
  1047     06EA  2EEC               	goto	u3381
  1048     06EB  2EED               	goto	u3380
  1049     06EC                     u3381:
  1050     06EC  2EF0               	goto	l2369
  1051     06ED                     u3380:
  1052     06ED                     l2367:
  1053                           
  1054                           ;main.c: 208:         {;main.c: 209:             PORTDbits.RD0 = 0;
  1055     06ED  1008               	bcf	8,0	;volatile
  1056                           
  1057                           ;main.c: 210:             PORTDbits.RD1 = 1;
  1058     06EE  1488               	bsf	8,1	;volatile
  1059                           
  1060                           ;main.c: 211:             PORTDbits.RD2 = 0;
  1061     06EF  1108               	bcf	8,2	;volatile
  1062     06F0                     l2369:
  1063                           
  1064                           ;main.c: 218:         if (MODO == 2)
  1065     06F0  3002               	movlw	2
  1066     06F1  066E               	xorwf	_MODO,w
  1067     06F2  1D03               	btfss	3,2
  1068     06F3  2EF5               	goto	u3391
  1069     06F4  2EF6               	goto	u3390
  1070     06F5                     u3391:
  1071     06F5  2EF9               	goto	l2373
  1072     06F6                     u3390:
  1073     06F6                     l2371:
  1074                           
  1075                           ;main.c: 219:         {;main.c: 220:             PORTDbits.RD0 = 0;
  1076     06F6  1008               	bcf	8,0	;volatile
  1077                           
  1078                           ;main.c: 221:             PORTDbits.RD1 = 0;
  1079     06F7  1088               	bcf	8,1	;volatile
  1080                           
  1081                           ;main.c: 222:             PORTDbits.RD2 = 1;
  1082     06F8  1508               	bsf	8,2	;volatile
  1083     06F9                     l2373:
  1084                           
  1085                           ;main.c: 225:         if (MODO == 3)
  1086     06F9  3003               	movlw	3
  1087     06FA  066E               	xorwf	_MODO,w
  1088     06FB  1D03               	btfss	3,2
  1089     06FC  2EFE               	goto	u3401
  1090     06FD  2EFF               	goto	u3400
  1091     06FE                     u3401:
  1092     06FE  2DD4               	goto	l2309
  1093     06FF                     u3400:
  1094     06FF                     l2375:
  1095                           
  1096                           ;main.c: 226:         {;main.c: 227:             MODO = 0;
  1097     06FF  01EE               	clrf	_MODO
  1098     0700  2DD4               	goto	l2309
  1099     0701  120A  118A  280C   	ljmp	start
  1100     0704                     __end_of_main:
  1101                           
  1102                           	psect	text1
  1103     0D5B                     __ptext1:	
  1104 ;; *************** function _setupPWM *****************
  1105 ;; Defined at:
  1106 ;;		line 314 in file "main.c"
  1107 ;; Parameters:    Size  Location     Type
  1108 ;;		None
  1109 ;; Auto vars:     Size  Location     Type
  1110 ;;		None
  1111 ;; Return value:  Size  Location     Type
  1112 ;;                  1    wreg      void 
  1113 ;; Registers used:
  1114 ;;		wreg, status,2, status,0
  1115 ;; Tracked objects:
  1116 ;;		On entry : 0/0
  1117 ;;		On exit  : 0/0
  1118 ;;		Unchanged: 0/0
  1119 ;; Data sizes:     COMMON   BANK0   BANK1   BANK3   BANK2
  1120 ;;      Params:         0       0       0       0       0
  1121 ;;      Locals:         0       0       0       0       0
  1122 ;;      Temps:          0       0       0       0       0
  1123 ;;      Totals:         0       0       0       0       0
  1124 ;;Total ram usage:        0 bytes
  1125 ;; Hardware stack levels used: 1
  1126 ;; Hardware stack levels required when called: 2
  1127 ;; This function calls:
  1128 ;;		Nothing
  1129 ;; This function is called by:
  1130 ;;		_main
  1131 ;; This function uses a non-reentrant model
  1132 ;;
  1133                           
  1134     0D5B                     _setupPWM:	
  1135                           ;psect for function _setupPWM
  1136                           
  1137     0D5B                     l1955:	
  1138                           ;incstack = 0
  1139                           ; Regs used in _setupPWM: [wreg+status,2+status,0]
  1140                           
  1141                           
  1142                           ;main.c: 318:     TRISCbits.TRISC2 = 1;
  1143     0D5B  1683               	bsf	3,5	;RP0=1, select bank1
  1144     0D5C  1303               	bcf	3,6	;RP1=0, select bank1
  1145     0D5D  1507               	bsf	7,2	;volatile
  1146                           
  1147                           ;main.c: 319:     TRISCbits.TRISC1 = 1;
  1148     0D5E  1487               	bsf	7,1	;volatile
  1149     0D5F                     l1957:
  1150                           
  1151                           ;main.c: 323:     PR2 = 155;
  1152     0D5F  309B               	movlw	155
  1153     0D60  0092               	movwf	18	;volatile
  1154     0D61                     l1959:
  1155                           
  1156                           ;main.c: 327:     CCP1CONbits.P1M = 0b00;
  1157     0D61  303F               	movlw	-193
  1158     0D62  1283               	bcf	3,5	;RP0=0, select bank0
  1159     0D63  1303               	bcf	3,6	;RP1=0, select bank0
  1160     0D64  0597               	andwf	23,f	;volatile
  1161     0D65                     l1961:
  1162                           
  1163                           ;main.c: 329:     CCP1CONbits.CCP1M = 0b1100;
  1164     0D65  0817               	movf	23,w	;volatile
  1165     0D66  39F0               	andlw	-16
  1166     0D67  380C               	iorlw	12
  1167     0D68  0097               	movwf	23	;volatile
  1168     0D69                     l1963:
  1169                           
  1170                           ;main.c: 330:     CCP2CONbits.CCP2M = 0b1111;
  1171     0D69  300F               	movlw	15
  1172     0D6A  049D               	iorwf	29,f	;volatile
  1173     0D6B                     l1965:
  1174                           
  1175                           ;main.c: 334:     CCP1CONbits.DC1B = 0b11;
  1176     0D6B  3030               	movlw	48
  1177     0D6C  0497               	iorwf	23,f	;volatile
  1178     0D6D                     l1967:
  1179                           
  1180                           ;main.c: 335:     CCP2CONbits.DC2B1 = 0b1;
  1181     0D6D  169D               	bsf	29,5	;volatile
  1182     0D6E                     l1969:
  1183                           
  1184                           ;main.c: 336:     CCP2CONbits.DC2B0 = 0b1;
  1185     0D6E  161D               	bsf	29,4	;volatile
  1186                           
  1187                           ;main.c: 338:     CCPR1L = 11;
  1188     0D6F  300B               	movlw	11
  1189     0D70  0095               	movwf	21	;volatile
  1190                           
  1191                           ;main.c: 339:     CCPR2L = 11;
  1192     0D71  300B               	movlw	11
  1193     0D72  009B               	movwf	27	;volatile
  1194     0D73                     l1971:
  1195                           
  1196                           ;main.c: 345:     PIR1bits.TMR2IF = 0;
  1197     0D73  108C               	bcf	12,1	;volatile
  1198     0D74                     l1973:
  1199                           
  1200                           ;main.c: 346:     T2CONbits.T2CKPS = 0b11;
  1201     0D74  3003               	movlw	3
  1202     0D75  0492               	iorwf	18,f	;volatile
  1203     0D76                     l1975:
  1204                           
  1205                           ;main.c: 347:     T2CONbits.TMR2ON = 1;
  1206     0D76  1512               	bsf	18,2	;volatile
  1207     0D77                     l137:	
  1208                           ;main.c: 351:     while(!PIR1bits.TMR2IF){};
  1209                           
  1210     0D77  1C8C               	btfss	12,1	;volatile
  1211     0D78  2D7A               	goto	u2631
  1212     0D79  2D7B               	goto	u2630
  1213     0D7A                     u2631:
  1214     0D7A  2D77               	goto	l137
  1215     0D7B                     u2630:
  1216     0D7B                     l139:
  1217                           
  1218                           ;main.c: 353:     TRISCbits.TRISC2 = 0;
  1219     0D7B  1683               	bsf	3,5	;RP0=1, select bank1
  1220     0D7C  1303               	bcf	3,6	;RP1=0, select bank1
  1221     0D7D  1107               	bcf	7,2	;volatile
  1222                           
  1223                           ;main.c: 354:     TRISCbits.TRISC1 = 0;
  1224     0D7E  1087               	bcf	7,1	;volatile
  1225     0D7F                     l140:
  1226     0D7F  0008               	return
  1227     0D80                     __end_of_setupPWM:
  1228                           
  1229                           	psect	text2
  1230     0DFB                     __ptext2:	
  1231 ;; *************** function _setupADC *****************
  1232 ;; Defined at:
  1233 ;;		line 278 in file "main.c"
  1234 ;; Parameters:    Size  Location     Type
  1235 ;;		None
  1236 ;; Auto vars:     Size  Location     Type
  1237 ;;		None
  1238 ;; Return value:  Size  Location     Type
  1239 ;;                  1    wreg      void 
  1240 ;; Registers used:
  1241 ;;		wreg
  1242 ;; Tracked objects:
  1243 ;;		On entry : 0/0
  1244 ;;		On exit  : 0/0
  1245 ;;		Unchanged: 0/0
  1246 ;; Data sizes:     COMMON   BANK0   BANK1   BANK3   BANK2
  1247 ;;      Params:         0       0       0       0       0
  1248 ;;      Locals:         0       0       0       0       0
  1249 ;;      Temps:          0       1       0       0       0
  1250 ;;      Totals:         0       1       0       0       0
  1251 ;;Total ram usage:        1 bytes
  1252 ;; Hardware stack levels used: 1
  1253 ;; Hardware stack levels required when called: 2
  1254 ;; This function calls:
  1255 ;;		Nothing
  1256 ;; This function is called by:
  1257 ;;		_main
  1258 ;; This function uses a non-reentrant model
  1259 ;;
  1260                           
  1261     0DFB                     _setupADC:	
  1262                           ;psect for function _setupADC
  1263                           
  1264     0DFB                     l2295:	
  1265                           ;incstack = 0
  1266                           ; Regs used in _setupADC: [wreg]
  1267                           
  1268                           
  1269                           ;main.c: 282:     TRISAbits.TRISA0 = 1;
  1270     0DFB  1683               	bsf	3,5	;RP0=1, select bank1
  1271     0DFC  1303               	bcf	3,6	;RP1=0, select bank1
  1272     0DFD  1405               	bsf	5,0	;volatile
  1273                           
  1274                           ;main.c: 283:     ANSELbits.ANS0 = 1;
  1275     0DFE  1683               	bsf	3,5	;RP0=1, select bank3
  1276     0DFF  1703               	bsf	3,6	;RP1=1, select bank3
  1277     0E00  1408               	bsf	8,0	;volatile
  1278                           
  1279                           ;main.c: 285:     TRISAbits.TRISA1 = 1;
  1280     0E01  1683               	bsf	3,5	;RP0=1, select bank1
  1281     0E02  1303               	bcf	3,6	;RP1=0, select bank1
  1282     0E03  1485               	bsf	5,1	;volatile
  1283                           
  1284                           ;main.c: 286:     ANSELbits.ANS1 = 1;
  1285     0E04  1683               	bsf	3,5	;RP0=1, select bank3
  1286     0E05  1703               	bsf	3,6	;RP1=1, select bank3
  1287     0E06  1488               	bsf	8,1	;volatile
  1288                           
  1289                           ;main.c: 288:     TRISAbits.TRISA2 = 1;
  1290     0E07  1683               	bsf	3,5	;RP0=1, select bank1
  1291     0E08  1303               	bcf	3,6	;RP1=0, select bank1
  1292     0E09  1505               	bsf	5,2	;volatile
  1293                           
  1294                           ;main.c: 289:     ANSELbits.ANS2 = 1;
  1295     0E0A  1683               	bsf	3,5	;RP0=1, select bank3
  1296     0E0B  1703               	bsf	3,6	;RP1=1, select bank3
  1297     0E0C  1508               	bsf	8,2	;volatile
  1298                           
  1299                           ;main.c: 291:     TRISAbits.TRISA3 = 1;
  1300     0E0D  1683               	bsf	3,5	;RP0=1, select bank1
  1301     0E0E  1303               	bcf	3,6	;RP1=0, select bank1
  1302     0E0F  1585               	bsf	5,3	;volatile
  1303                           
  1304                           ;main.c: 292:     ANSELbits.ANS3 = 1;
  1305     0E10  1683               	bsf	3,5	;RP0=1, select bank3
  1306     0E11  1703               	bsf	3,6	;RP1=1, select bank3
  1307     0E12  1588               	bsf	8,3	;volatile
  1308                           
  1309                           ;main.c: 296:     ADCON0bits.ADCS0 = 1;
  1310     0E13  1283               	bcf	3,5	;RP0=0, select bank0
  1311     0E14  1303               	bcf	3,6	;RP1=0, select bank0
  1312     0E15  171F               	bsf	31,6	;volatile
  1313                           
  1314                           ;main.c: 297:     ADCON0bits.ADCS1 = 0;
  1315     0E16  139F               	bcf	31,7	;volatile
  1316                           
  1317                           ;main.c: 299:     ADCON1bits.VCFG0 = 0;
  1318     0E17  1683               	bsf	3,5	;RP0=1, select bank1
  1319     0E18  1303               	bcf	3,6	;RP1=0, select bank1
  1320     0E19  121F               	bcf	31,4	;volatile
  1321                           
  1322                           ;main.c: 300:     ADCON1bits.VCFG1 = 0;
  1323     0E1A  129F               	bcf	31,5	;volatile
  1324                           
  1325                           ;main.c: 302:     ADCON0bits.CHS0 = 0;
  1326     0E1B  1283               	bcf	3,5	;RP0=0, select bank0
  1327     0E1C  1303               	bcf	3,6	;RP1=0, select bank0
  1328     0E1D  111F               	bcf	31,2	;volatile
  1329                           
  1330                           ;main.c: 303:     ADCON0bits.CHS1 = 0;
  1331     0E1E  119F               	bcf	31,3	;volatile
  1332                           
  1333                           ;main.c: 304:     ADCON0bits.CHS2 = 0;
  1334     0E1F  121F               	bcf	31,4	;volatile
  1335                           
  1336                           ;main.c: 305:     ADCON0bits.CHS3 = 0;
  1337     0E20  129F               	bcf	31,5	;volatile
  1338                           
  1339                           ;main.c: 307:     ADCON1bits.ADFM = 0;
  1340     0E21  1683               	bsf	3,5	;RP0=1, select bank1
  1341     0E22  1303               	bcf	3,6	;RP1=0, select bank1
  1342     0E23  139F               	bcf	31,7	;volatile
  1343                           
  1344                           ;main.c: 309:     ADCON0bits.ADON = 1;
  1345     0E24  1283               	bcf	3,5	;RP0=0, select bank0
  1346     0E25  1303               	bcf	3,6	;RP1=0, select bank0
  1347     0E26  141F               	bsf	31,0	;volatile
  1348     0E27                     l2297:
  1349                           
  1350                           ;main.c: 311:     _delay((unsigned long)((100)*(500000/4000000.0)));
  1351     0E27  3003               	movlw	3
  1352     0E28  1283               	bcf	3,5	;RP0=0, select bank0
  1353     0E29  1303               	bcf	3,6	;RP1=0, select bank0
  1354     0E2A  00A0               	movwf	??_setupADC
  1355     0E2B                     u3497:
  1356     0E2B  0BA0               	decfsz	??_setupADC,f
  1357     0E2C  2E2B               	goto	u3497
  1358     0E2D                     l134:
  1359     0E2D  0008               	return
  1360     0E2E                     __end_of_setupADC:
  1361                           
  1362                           	psect	text3
  1363     0DD0                     __ptext3:	
  1364 ;; *************** function _setup *****************
  1365 ;; Defined at:
  1366 ;;		line 237 in file "main.c"
  1367 ;; Parameters:    Size  Location     Type
  1368 ;;		None
  1369 ;; Auto vars:     Size  Location     Type
  1370 ;;		None
  1371 ;; Return value:  Size  Location     Type
  1372 ;;                  1    wreg      void 
  1373 ;; Registers used:
  1374 ;;		wreg, status,2, status,0
  1375 ;; Tracked objects:
  1376 ;;		On entry : 0/0
  1377 ;;		On exit  : 0/0
  1378 ;;		Unchanged: 0/0
  1379 ;; Data sizes:     COMMON   BANK0   BANK1   BANK3   BANK2
  1380 ;;      Params:         0       0       0       0       0
  1381 ;;      Locals:         0       0       0       0       0
  1382 ;;      Temps:          0       0       0       0       0
  1383 ;;      Totals:         0       0       0       0       0
  1384 ;;Total ram usage:        0 bytes
  1385 ;; Hardware stack levels used: 1
  1386 ;; Hardware stack levels required when called: 2
  1387 ;; This function calls:
  1388 ;;		Nothing
  1389 ;; This function is called by:
  1390 ;;		_main
  1391 ;; This function uses a non-reentrant model
  1392 ;;
  1393                           
  1394     0DD0                     _setup:	
  1395                           ;psect for function _setup
  1396                           
  1397     0DD0                     l1907:	
  1398                           ;incstack = 0
  1399                           ; Regs used in _setup: [wreg+status,2+status,0]
  1400                           
  1401                           
  1402                           ;main.c: 239:     ANSELH = 0;
  1403     0DD0  1683               	bsf	3,5	;RP0=1, select bank3
  1404     0DD1  1703               	bsf	3,6	;RP1=1, select bank3
  1405     0DD2  0189               	clrf	9	;volatile
  1406                           
  1407                           ;main.c: 241:     TRISA = 0;
  1408     0DD3  1683               	bsf	3,5	;RP0=1, select bank1
  1409     0DD4  1303               	bcf	3,6	;RP1=0, select bank1
  1410     0DD5  0185               	clrf	5	;volatile
  1411     0DD6                     l1909:
  1412                           
  1413                           ;main.c: 242:     TRISB = 0b00011111;
  1414     0DD6  301F               	movlw	31
  1415     0DD7  0086               	movwf	6	;volatile
  1416     0DD8                     l1911:
  1417                           
  1418                           ;main.c: 243:     TRISC = 0;
  1419     0DD8  0187               	clrf	7	;volatile
  1420     0DD9                     l1913:
  1421                           
  1422                           ;main.c: 244:     TRISD = 0;
  1423     0DD9  0188               	clrf	8	;volatile
  1424     0DDA                     l1915:
  1425                           
  1426                           ;main.c: 246:     PORTA = 0;
  1427     0DDA  1283               	bcf	3,5	;RP0=0, select bank0
  1428     0DDB  1303               	bcf	3,6	;RP1=0, select bank0
  1429     0DDC  0185               	clrf	5	;volatile
  1430     0DDD                     l1917:
  1431                           
  1432                           ;main.c: 247:     PORTB = 0;
  1433     0DDD  0186               	clrf	6	;volatile
  1434     0DDE                     l1919:
  1435                           
  1436                           ;main.c: 248:     PORTC = 0;
  1437     0DDE  0187               	clrf	7	;volatile
  1438     0DDF                     l1921:
  1439                           
  1440                           ;main.c: 249:     PORTD = 0;
  1441     0DDF  0188               	clrf	8	;volatile
  1442     0DE0                     l1923:
  1443                           
  1444                           ;main.c: 251:     OPTION_REGbits.nRBPU = 0;
  1445     0DE0  1683               	bsf	3,5	;RP0=1, select bank1
  1446     0DE1  1303               	bcf	3,6	;RP1=0, select bank1
  1447     0DE2  1381               	bcf	1,7	;volatile
  1448     0DE3                     l1925:
  1449                           
  1450                           ;main.c: 252:     IOCB = 0b01111111;
  1451     0DE3  307F               	movlw	127
  1452     0DE4  0096               	movwf	22	;volatile
  1453     0DE5                     l1927:
  1454                           
  1455                           ;main.c: 256:     OSCCONbits.IRCF = 0b011 ;
  1456     0DE5  080F               	movf	15,w	;volatile
  1457     0DE6  398F               	andlw	-113
  1458     0DE7  3830               	iorlw	48
  1459     0DE8  008F               	movwf	15	;volatile
  1460     0DE9                     l1929:
  1461                           
  1462                           ;main.c: 257:     OSCCONbits.SCS = 1;
  1463     0DE9  140F               	bsf	15,0	;volatile
  1464     0DEA                     l1931:
  1465                           
  1466                           ;main.c: 261:     OPTION_REGbits.T0CS = 0;
  1467     0DEA  1281               	bcf	1,5	;volatile
  1468     0DEB                     l1933:
  1469                           
  1470                           ;main.c: 262:     OPTION_REGbits.PSA = 0;
  1471     0DEB  1181               	bcf	1,3	;volatile
  1472     0DEC                     l1935:
  1473                           
  1474                           ;main.c: 263:     OPTION_REGbits.PS = 0b011;
  1475     0DEC  0801               	movf	1,w	;volatile
  1476     0DED  39F8               	andlw	-8
  1477     0DEE  3803               	iorlw	3
  1478     0DEF  0081               	movwf	1	;volatile
  1479     0DF0                     l1937:
  1480                           
  1481                           ;main.c: 265:     TMR0 = 100;
  1482     0DF0  3064               	movlw	100
  1483     0DF1  1283               	bcf	3,5	;RP0=0, select bank0
  1484     0DF2  1303               	bcf	3,6	;RP1=0, select bank0
  1485     0DF3  0081               	movwf	1	;volatile
  1486     0DF4                     l1939:
  1487                           
  1488                           ;main.c: 267:     INTCONbits.TMR0IE = 1;
  1489     0DF4  168B               	bsf	11,5	;volatile
  1490     0DF5                     l1941:
  1491                           
  1492                           ;main.c: 268:     INTCONbits.T0IF = 0;
  1493     0DF5  110B               	bcf	11,2	;volatile
  1494     0DF6                     l1943:
  1495                           
  1496                           ;main.c: 272:     INTCONbits.GIE = 1;
  1497     0DF6  178B               	bsf	11,7	;volatile
  1498     0DF7                     l1945:
  1499                           
  1500                           ;main.c: 273:     INTCONbits.PEIE = 1;
  1501     0DF7  170B               	bsf	11,6	;volatile
  1502     0DF8                     l1947:
  1503                           
  1504                           ;main.c: 274:     INTCONbits.RBIF = 1;
  1505     0DF8  140B               	bsf	11,0	;volatile
  1506     0DF9                     l1949:
  1507                           
  1508                           ;main.c: 275:     INTCONbits.RBIE = 0;
  1509     0DF9  118B               	bcf	11,3	;volatile
  1510     0DFA                     l131:
  1511     0DFA  0008               	return
  1512     0DFB                     __end_of_setup:
  1513                           
  1514                           	psect	text4
  1515     0E2E                     __ptext4:	
  1516 ;; *************** function _map *****************
  1517 ;; Defined at:
  1518 ;;		line 384 in file "main.c"
  1519 ;; Parameters:    Size  Location     Type
  1520 ;;  ADC             1    wreg     unsigned char 
  1521 ;;  entrada_min     2   15[BANK0 ] int 
  1522 ;;  entrada_max     2   17[BANK0 ] int 
  1523 ;;  salida_min      2   19[BANK0 ] int 
  1524 ;;  salida_max      2   21[BANK0 ] int 
  1525 ;; Auto vars:     Size  Location     Type
  1526 ;;  ADC             1   26[BANK0 ] unsigned char 
  1527 ;; Return value:  Size  Location     Type
  1528 ;;                  2   15[BANK0 ] unsigned int 
  1529 ;; Registers used:
  1530 ;;		wreg, status,2, status,0, pclath, cstack
  1531 ;; Tracked objects:
  1532 ;;		On entry : 0/0
  1533 ;;		On exit  : 0/0
  1534 ;;		Unchanged: 0/0
  1535 ;; Data sizes:     COMMON   BANK0   BANK1   BANK3   BANK2
  1536 ;;      Params:         0       8       0       0       0
  1537 ;;      Locals:         0       1       0       0       0
  1538 ;;      Temps:          0       3       0       0       0
  1539 ;;      Totals:         0      12       0       0       0
  1540 ;;Total ram usage:       12 bytes
  1541 ;; Hardware stack levels used: 1
  1542 ;; Hardware stack levels required when called: 3
  1543 ;; This function calls:
  1544 ;;		___awdiv
  1545 ;;		___wmul
  1546 ;; This function is called by:
  1547 ;;		_main
  1548 ;; This function uses a non-reentrant model
  1549 ;;
  1550                           
  1551     0E2E                     _map:	
  1552                           ;psect for function _map
  1553                           
  1554                           
  1555                           ;incstack = 0
  1556                           ; Regs used in _map: [wreg+status,2+status,0+pclath+cstack]
  1557                           ;map@ADC stored from wreg
  1558     0E2E  1283               	bcf	3,5	;RP0=0, select bank0
  1559     0E2F  1303               	bcf	3,6	;RP1=0, select bank0
  1560     0E30  00BA               	movwf	map@ADC
  1561     0E31                     l2303:
  1562                           
  1563                           ;main.c: 385:     return ((ADC - entrada_min)*(salida_max-salida_min)) / ((entrada_max-e
      +                          ntrada_min)+salida_min);
  1564     0E31  082F               	movf	map@entrada_min,w
  1565     0E32  0231               	subwf	map@entrada_max,w
  1566     0E33  00B7               	movwf	??_map
  1567     0E34  0830               	movf	map@entrada_min+1,w
  1568     0E35  1C03               	skipc
  1569     0E36  0A30               	incf	map@entrada_min+1,w
  1570     0E37  0232               	subwf	map@entrada_max+1,w
  1571     0E38  00B8               	movwf	??_map+1
  1572     0E39  0833               	movf	map@salida_min,w
  1573     0E3A  0737               	addwf	??_map,w
  1574     0E3B  00A6               	movwf	___awdiv@divisor
  1575     0E3C  0834               	movf	map@salida_min+1,w
  1576     0E3D  1803               	skipnc
  1577     0E3E  0A34               	incf	map@salida_min+1,w
  1578     0E3F  0738               	addwf	??_map+1,w
  1579     0E40  00A7               	movwf	___awdiv@divisor+1
  1580     0E41  083A               	movf	map@ADC,w
  1581     0E42  00B9               	movwf	??_map+2
  1582     0E43  082F               	movf	map@entrada_min,w
  1583     0E44  0239               	subwf	??_map+2,w
  1584     0E45  00A0               	movwf	___wmul@multiplier
  1585     0E46  0930               	comf	map@entrada_min+1,w
  1586     0E47  1803               	skipnc
  1587     0E48  3E01               	addlw	1
  1588     0E49  00A1               	movwf	___wmul@multiplier+1
  1589     0E4A  0833               	movf	map@salida_min,w
  1590     0E4B  0235               	subwf	map@salida_max,w
  1591     0E4C  00A2               	movwf	___wmul@multiplicand
  1592     0E4D  0834               	movf	map@salida_min+1,w
  1593     0E4E  1C03               	skipc
  1594     0E4F  0A34               	incf	map@salida_min+1,w
  1595     0E50  0236               	subwf	map@salida_max+1,w
  1596     0E51  00A3               	movwf	___wmul@multiplicand+1
  1597     0E52  120A  158A  2580  120A  158A  	fcall	___wmul
  1598     0E57  1283               	bcf	3,5	;RP0=0, select bank0
  1599     0E58  1303               	bcf	3,6	;RP1=0, select bank0
  1600     0E59  0821               	movf	?___wmul+1,w
  1601     0E5A  00A9               	movwf	___awdiv@dividend+1
  1602     0E5B  0820               	movf	?___wmul,w
  1603     0E5C  00A8               	movwf	___awdiv@dividend
  1604     0E5D  120A  158A  271F  120A  158A  	fcall	___awdiv
  1605     0E62  1283               	bcf	3,5	;RP0=0, select bank0
  1606     0E63  1303               	bcf	3,6	;RP1=0, select bank0
  1607     0E64  0827               	movf	?___awdiv+1,w
  1608     0E65  00B0               	movwf	?_map+1
  1609     0E66  0826               	movf	?___awdiv,w
  1610     0E67  00AF               	movwf	?_map
  1611     0E68                     l155:
  1612     0E68  0008               	return
  1613     0E69                     __end_of_map:
  1614                           
  1615                           	psect	text5
  1616     0D80                     __ptext5:	
  1617 ;; *************** function ___wmul *****************
  1618 ;; Defined at:
  1619 ;;		line 15 in file "C:\Program Files\Microchip\xc8\v2.40\pic\sources\c90\common\Umul16.c"
  1620 ;; Parameters:    Size  Location     Type
  1621 ;;  multiplier      2    0[BANK0 ] unsigned int 
  1622 ;;  multiplicand    2    2[BANK0 ] unsigned int 
  1623 ;; Auto vars:     Size  Location     Type
  1624 ;;  product         2    4[BANK0 ] unsigned int 
  1625 ;; Return value:  Size  Location     Type
  1626 ;;                  2    0[BANK0 ] unsigned int 
  1627 ;; Registers used:
  1628 ;;		wreg, status,2, status,0
  1629 ;; Tracked objects:
  1630 ;;		On entry : 0/0
  1631 ;;		On exit  : 0/0
  1632 ;;		Unchanged: 0/0
  1633 ;; Data sizes:     COMMON   BANK0   BANK1   BANK3   BANK2
  1634 ;;      Params:         0       4       0       0       0
  1635 ;;      Locals:         0       2       0       0       0
  1636 ;;      Temps:          0       0       0       0       0
  1637 ;;      Totals:         0       6       0       0       0
  1638 ;;Total ram usage:        6 bytes
  1639 ;; Hardware stack levels used: 1
  1640 ;; Hardware stack levels required when called: 2
  1641 ;; This function calls:
  1642 ;;		Nothing
  1643 ;; This function is called by:
  1644 ;;		_map
  1645 ;; This function uses a non-reentrant model
  1646 ;;
  1647                           
  1648     0D80                     ___wmul:	
  1649                           ;psect for function ___wmul
  1650                           
  1651     0D80                     l2097:	
  1652                           ;incstack = 0
  1653                           ; Regs used in ___wmul: [wreg+status,2+status,0]
  1654                           
  1655     0D80  1283               	bcf	3,5	;RP0=0, select bank0
  1656     0D81  1303               	bcf	3,6	;RP1=0, select bank0
  1657     0D82  01A4               	clrf	___wmul@product
  1658     0D83  01A5               	clrf	___wmul@product+1
  1659     0D84                     l2099:
  1660     0D84  1C20               	btfss	___wmul@multiplier,0
  1661     0D85  2D87               	goto	u2781
  1662     0D86  2D88               	goto	u2780
  1663     0D87                     u2781:
  1664     0D87  2D8E               	goto	l241
  1665     0D88                     u2780:
  1666     0D88                     l2101:
  1667     0D88  0822               	movf	___wmul@multiplicand,w
  1668     0D89  07A4               	addwf	___wmul@product,f
  1669     0D8A  1803               	skipnc
  1670     0D8B  0AA5               	incf	___wmul@product+1,f
  1671     0D8C  0823               	movf	___wmul@multiplicand+1,w
  1672     0D8D  07A5               	addwf	___wmul@product+1,f
  1673     0D8E                     l241:
  1674     0D8E  3001               	movlw	1
  1675     0D8F                     u2795:
  1676     0D8F  1003               	clrc
  1677     0D90  0DA2               	rlf	___wmul@multiplicand,f
  1678     0D91  0DA3               	rlf	___wmul@multiplicand+1,f
  1679     0D92  3EFF               	addlw	-1
  1680     0D93  1D03               	skipz
  1681     0D94  2D8F               	goto	u2795
  1682     0D95                     l2103:
  1683     0D95  3001               	movlw	1
  1684     0D96                     u2805:
  1685     0D96  1003               	clrc
  1686     0D97  0CA1               	rrf	___wmul@multiplier+1,f
  1687     0D98  0CA0               	rrf	___wmul@multiplier,f
  1688     0D99  3EFF               	addlw	-1
  1689     0D9A  1D03               	skipz
  1690     0D9B  2D96               	goto	u2805
  1691     0D9C                     l2105:
  1692     0D9C  0820               	movf	___wmul@multiplier,w
  1693     0D9D  0421               	iorwf	___wmul@multiplier+1,w
  1694     0D9E  1D03               	btfss	3,2
  1695     0D9F  2DA1               	goto	u2811
  1696     0DA0  2DA2               	goto	u2810
  1697     0DA1                     u2811:
  1698     0DA1  2D84               	goto	l2099
  1699     0DA2                     u2810:
  1700     0DA2                     l2107:
  1701     0DA2  0825               	movf	___wmul@product+1,w
  1702     0DA3  00A1               	movwf	?___wmul+1
  1703     0DA4  0824               	movf	___wmul@product,w
  1704     0DA5  00A0               	movwf	?___wmul
  1705     0DA6                     l243:
  1706     0DA6  0008               	return
  1707     0DA7                     __end_of___wmul:
  1708                           
  1709                           	psect	text6
  1710     0F1F                     __ptext6:	
  1711 ;; *************** function ___awdiv *****************
  1712 ;; Defined at:
  1713 ;;		line 5 in file "C:\Program Files\Microchip\xc8\v2.40\pic\sources\c90\common\awdiv.c"
  1714 ;; Parameters:    Size  Location     Type
  1715 ;;  divisor         2    6[BANK0 ] int 
  1716 ;;  dividend        2    8[BANK0 ] int 
  1717 ;; Auto vars:     Size  Location     Type
  1718 ;;  quotient        2   13[BANK0 ] int 
  1719 ;;  sign            1   12[BANK0 ] unsigned char 
  1720 ;;  counter         1   11[BANK0 ] unsigned char 
  1721 ;; Return value:  Size  Location     Type
  1722 ;;                  2    6[BANK0 ] int 
  1723 ;; Registers used:
  1724 ;;		wreg, status,2, status,0
  1725 ;; Tracked objects:
  1726 ;;		On entry : 0/0
  1727 ;;		On exit  : 0/0
  1728 ;;		Unchanged: 0/0
  1729 ;; Data sizes:     COMMON   BANK0   BANK1   BANK3   BANK2
  1730 ;;      Params:         0       4       0       0       0
  1731 ;;      Locals:         0       4       0       0       0
  1732 ;;      Temps:          0       1       0       0       0
  1733 ;;      Totals:         0       9       0       0       0
  1734 ;;Total ram usage:        9 bytes
  1735 ;; Hardware stack levels used: 1
  1736 ;; Hardware stack levels required when called: 2
  1737 ;; This function calls:
  1738 ;;		Nothing
  1739 ;; This function is called by:
  1740 ;;		_map
  1741 ;; This function uses a non-reentrant model
  1742 ;;
  1743                           
  1744     0F1F                     ___awdiv:	
  1745                           ;psect for function ___awdiv
  1746                           
  1747     0F1F                     l1443:	
  1748                           ;incstack = 0
  1749                           ; Regs used in ___awdiv: [wreg+status,2+status,0]
  1750                           
  1751     0F1F  1283               	bcf	3,5	;RP0=0, select bank0
  1752     0F20  1303               	bcf	3,6	;RP1=0, select bank0
  1753     0F21  01AC               	clrf	___awdiv@sign
  1754     0F22                     l1445:
  1755     0F22  1FA7               	btfss	___awdiv@divisor+1,7
  1756     0F23  2F25               	goto	u1451
  1757     0F24  2F26               	goto	u1450
  1758     0F25                     u1451:
  1759     0F25  2F2D               	goto	l1451
  1760     0F26                     u1450:
  1761     0F26                     l1447:
  1762     0F26  09A6               	comf	___awdiv@divisor,f
  1763     0F27  09A7               	comf	___awdiv@divisor+1,f
  1764     0F28  0AA6               	incf	___awdiv@divisor,f
  1765     0F29  1903               	skipnz
  1766     0F2A  0AA7               	incf	___awdiv@divisor+1,f
  1767     0F2B                     l1449:
  1768     0F2B  01AC               	clrf	___awdiv@sign
  1769     0F2C  0AAC               	incf	___awdiv@sign,f
  1770     0F2D                     l1451:
  1771     0F2D  1FA9               	btfss	___awdiv@dividend+1,7
  1772     0F2E  2F30               	goto	u1461
  1773     0F2F  2F31               	goto	u1460
  1774     0F30                     u1461:
  1775     0F30  2F3A               	goto	l1457
  1776     0F31                     u1460:
  1777     0F31                     l1453:
  1778     0F31  09A8               	comf	___awdiv@dividend,f
  1779     0F32  09A9               	comf	___awdiv@dividend+1,f
  1780     0F33  0AA8               	incf	___awdiv@dividend,f
  1781     0F34  1903               	skipnz
  1782     0F35  0AA9               	incf	___awdiv@dividend+1,f
  1783     0F36                     l1455:
  1784     0F36  3001               	movlw	1
  1785     0F37  00AA               	movwf	??___awdiv
  1786     0F38  082A               	movf	??___awdiv,w
  1787     0F39  06AC               	xorwf	___awdiv@sign,f
  1788     0F3A                     l1457:
  1789     0F3A  01AD               	clrf	___awdiv@quotient
  1790     0F3B  01AE               	clrf	___awdiv@quotient+1
  1791     0F3C                     l1459:
  1792     0F3C  0826               	movf	___awdiv@divisor,w
  1793     0F3D  0427               	iorwf	___awdiv@divisor+1,w
  1794     0F3E  1903               	btfsc	3,2
  1795     0F3F  2F41               	goto	u1471
  1796     0F40  2F42               	goto	u1470
  1797     0F41                     u1471:
  1798     0F41  2F79               	goto	l1479
  1799     0F42                     u1470:
  1800     0F42                     l1461:
  1801     0F42  01AB               	clrf	___awdiv@counter
  1802     0F43  0AAB               	incf	___awdiv@counter,f
  1803     0F44  2F50               	goto	l1467
  1804     0F45                     l1463:
  1805     0F45  3001               	movlw	1
  1806     0F46                     u1485:
  1807     0F46  1003               	clrc
  1808     0F47  0DA6               	rlf	___awdiv@divisor,f
  1809     0F48  0DA7               	rlf	___awdiv@divisor+1,f
  1810     0F49  3EFF               	addlw	-1
  1811     0F4A  1D03               	skipz
  1812     0F4B  2F46               	goto	u1485
  1813     0F4C                     l1465:
  1814     0F4C  3001               	movlw	1
  1815     0F4D  00AA               	movwf	??___awdiv
  1816     0F4E  082A               	movf	??___awdiv,w
  1817     0F4F  07AB               	addwf	___awdiv@counter,f
  1818     0F50                     l1467:
  1819     0F50  1FA7               	btfss	___awdiv@divisor+1,7
  1820     0F51  2F53               	goto	u1491
  1821     0F52  2F54               	goto	u1490
  1822     0F53                     u1491:
  1823     0F53  2F45               	goto	l1463
  1824     0F54                     u1490:
  1825     0F54                     l1469:
  1826     0F54  3001               	movlw	1
  1827     0F55                     u1505:
  1828     0F55  1003               	clrc
  1829     0F56  0DAD               	rlf	___awdiv@quotient,f
  1830     0F57  0DAE               	rlf	___awdiv@quotient+1,f
  1831     0F58  3EFF               	addlw	-1
  1832     0F59  1D03               	skipz
  1833     0F5A  2F55               	goto	u1505
  1834     0F5B  0827               	movf	___awdiv@divisor+1,w
  1835     0F5C  0229               	subwf	___awdiv@dividend+1,w
  1836     0F5D  1D03               	skipz
  1837     0F5E  2F61               	goto	u1515
  1838     0F5F  0826               	movf	___awdiv@divisor,w
  1839     0F60  0228               	subwf	___awdiv@dividend,w
  1840     0F61                     u1515:
  1841     0F61  1C03               	skipc
  1842     0F62  2F64               	goto	u1511
  1843     0F63  2F65               	goto	u1510
  1844     0F64                     u1511:
  1845     0F64  2F6C               	goto	l1475
  1846     0F65                     u1510:
  1847     0F65                     l1471:
  1848     0F65  0826               	movf	___awdiv@divisor,w
  1849     0F66  02A8               	subwf	___awdiv@dividend,f
  1850     0F67  0827               	movf	___awdiv@divisor+1,w
  1851     0F68  1C03               	skipc
  1852     0F69  03A9               	decf	___awdiv@dividend+1,f
  1853     0F6A  02A9               	subwf	___awdiv@dividend+1,f
  1854     0F6B                     l1473:
  1855     0F6B  142D               	bsf	___awdiv@quotient,0
  1856     0F6C                     l1475:
  1857     0F6C  3001               	movlw	1
  1858     0F6D                     u1525:
  1859     0F6D  1003               	clrc
  1860     0F6E  0CA7               	rrf	___awdiv@divisor+1,f
  1861     0F6F  0CA6               	rrf	___awdiv@divisor,f
  1862     0F70  3EFF               	addlw	-1
  1863     0F71  1D03               	skipz
  1864     0F72  2F6D               	goto	u1525
  1865     0F73                     l1477:
  1866     0F73  3001               	movlw	1
  1867     0F74  02AB               	subwf	___awdiv@counter,f
  1868     0F75  1D03               	btfss	3,2
  1869     0F76  2F78               	goto	u1531
  1870     0F77  2F79               	goto	u1530
  1871     0F78                     u1531:
  1872     0F78  2F54               	goto	l1469
  1873     0F79                     u1530:
  1874     0F79                     l1479:
  1875     0F79  082C               	movf	___awdiv@sign,w
  1876     0F7A  1903               	btfsc	3,2
  1877     0F7B  2F7D               	goto	u1541
  1878     0F7C  2F7E               	goto	u1540
  1879     0F7D                     u1541:
  1880     0F7D  2F83               	goto	l1483
  1881     0F7E                     u1540:
  1882     0F7E                     l1481:
  1883     0F7E  09AD               	comf	___awdiv@quotient,f
  1884     0F7F  09AE               	comf	___awdiv@quotient+1,f
  1885     0F80  0AAD               	incf	___awdiv@quotient,f
  1886     0F81  1903               	skipnz
  1887     0F82  0AAE               	incf	___awdiv@quotient+1,f
  1888     0F83                     l1483:
  1889     0F83  082E               	movf	___awdiv@quotient+1,w
  1890     0F84  00A7               	movwf	?___awdiv+1
  1891     0F85  082D               	movf	___awdiv@quotient,w
  1892     0F86  00A6               	movwf	?___awdiv
  1893     0F87                     l394:
  1894     0F87  0008               	return
  1895     0F88                     __end_of___awdiv:
  1896                           
  1897                           	psect	text7
  1898     0EC4                     __ptext7:	
  1899 ;; *************** function _conv_s2 *****************
  1900 ;; Defined at:
  1901 ;;		line 379 in file "main.c"
  1902 ;; Parameters:    Size  Location     Type
  1903 ;;  valor           2    0[BANK1 ] int 
  1904 ;; Auto vars:     Size  Location     Type
  1905 ;;		None
  1906 ;; Return value:  Size  Location     Type
  1907 ;;                  1    wreg      void 
  1908 ;; Registers used:
  1909 ;;		wreg, status,2, status,0, btemp+1, pclath, cstack
  1910 ;; Tracked objects:
  1911 ;;		On entry : 0/0
  1912 ;;		On exit  : 0/0
  1913 ;;		Unchanged: 0/0
  1914 ;; Data sizes:     COMMON   BANK0   BANK1   BANK3   BANK2
  1915 ;;      Params:         0       0       2       0       0
  1916 ;;      Locals:         0       0       0       0       0
  1917 ;;      Temps:          0       0       0       0       0
  1918 ;;      Totals:         0       0       2       0       0
  1919 ;;Total ram usage:        2 bytes
  1920 ;; Hardware stack levels used: 1
  1921 ;; Hardware stack levels required when called: 4
  1922 ;; This function calls:
  1923 ;;		___fladd
  1924 ;;		___flmul
  1925 ;;		___fltol
  1926 ;;		___xxtofl
  1927 ;; This function is called by:
  1928 ;;		_main
  1929 ;; This function uses a non-reentrant model
  1930 ;;
  1931                           
  1932     0EC4                     _conv_s2:	
  1933                           ;psect for function _conv_s2
  1934                           
  1935     0EC4                     l2301:	
  1936                           ;incstack = 0
  1937                           ; Regs used in _conv_s2: [wreg+status,2+status,0+btemp+1+pclath+cstack]
  1938                           
  1939                           
  1940                           ;main.c: 379: void conv_s2(int valor);main.c: 380: {;main.c: 381:     SERVO2 = (unsigned
      +                           short) (7+( (float)(13)/(255) ) * (valor-0));
  1941     0EC4  1683               	bsf	3,5	;RP0=1, select bank1
  1942     0EC5  1303               	bcf	3,6	;RP1=0, select bank1
  1943     0EC6  0824               	movf	conv_s2@valor^(0+128),w
  1944     0EC7  1283               	bcf	3,5	;RP0=0, select bank0
  1945     0EC8  1303               	bcf	3,6	;RP1=0, select bank0
  1946     0EC9  00A0               	movwf	___xxtofl@val
  1947     0ECA  1683               	bsf	3,5	;RP0=1, select bank1
  1948     0ECB  1303               	bcf	3,6	;RP1=0, select bank1
  1949     0ECC  0825               	movf	(conv_s2@valor+1)^(0+128),w
  1950     0ECD  1283               	bcf	3,5	;RP0=0, select bank0
  1951     0ECE  1303               	bcf	3,6	;RP1=0, select bank0
  1952     0ECF  00A1               	movwf	___xxtofl@val+1
  1953     0ED0  3000               	movlw	0
  1954     0ED1  1BA1               	btfsc	___xxtofl@val+1,7
  1955     0ED2  30FF               	movlw	255
  1956     0ED3  00A2               	movwf	___xxtofl@val+2
  1957     0ED4  00A3               	movwf	___xxtofl@val+3
  1958     0ED5  3001               	movlw	1
  1959     0ED6  120A  118A  2704  120A  158A  	fcall	___xxtofl
  1960     0EDB  1283               	bcf	3,5	;RP0=0, select bank0
  1961     0EDC  1303               	bcf	3,6	;RP1=0, select bank0
  1962     0EDD  0823               	movf	?___xxtofl+3,w
  1963     0EDE  00B5               	movwf	___flmul@a+3
  1964     0EDF  0822               	movf	?___xxtofl+2,w
  1965     0EE0  00B4               	movwf	___flmul@a+2
  1966     0EE1  0821               	movf	?___xxtofl+1,w
  1967     0EE2  00B3               	movwf	___flmul@a+1
  1968     0EE3  0820               	movf	?___xxtofl,w
  1969     0EE4  00B2               	movwf	___flmul@a
  1970     0EE5  303D               	movlw	61
  1971     0EE6  00B1               	movwf	___flmul@b+3
  1972     0EE7  3050               	movlw	80
  1973     0EE8  00B0               	movwf	___flmul@b+2
  1974     0EE9  30D0               	movlw	208
  1975     0EEA  00AF               	movwf	___flmul@b+1
  1976     0EEB  30D1               	movlw	209
  1977     0EEC  00AE               	movwf	___flmul@b
  1978     0EED  120A  118A  2028  120A  158A  	fcall	___flmul
  1979     0EF2  1283               	bcf	3,5	;RP0=0, select bank0
  1980     0EF3  1303               	bcf	3,6	;RP1=0, select bank0
  1981     0EF4  0831               	movf	?___flmul+3,w
  1982     0EF5  00CF               	movwf	___fladd@a+3
  1983     0EF6  0830               	movf	?___flmul+2,w
  1984     0EF7  00CE               	movwf	___fladd@a+2
  1985     0EF8  082F               	movf	?___flmul+1,w
  1986     0EF9  00CD               	movwf	___fladd@a+1
  1987     0EFA  082E               	movf	?___flmul,w
  1988     0EFB  00CC               	movwf	___fladd@a
  1989     0EFC  3040               	movlw	64
  1990     0EFD  00CB               	movwf	___fladd@b+3
  1991     0EFE  30E0               	movlw	224
  1992     0EFF  00CA               	movwf	___fladd@b+2
  1993     0F00  3000               	movlw	0
  1994     0F01  00C9               	movwf	___fladd@b+1
  1995     0F02  3000               	movlw	0
  1996     0F03  00C8               	movwf	___fladd@b
  1997     0F04  120A  118A  236D  120A  158A  	fcall	___fladd
  1998     0F09  1283               	bcf	3,5	;RP0=0, select bank0
  1999     0F0A  1303               	bcf	3,6	;RP1=0, select bank0
  2000     0F0B  084B               	movf	?___fladd+3,w
  2001     0F0C  00DF               	movwf	___fltol@f1+3
  2002     0F0D  084A               	movf	?___fladd+2,w
  2003     0F0E  00DE               	movwf	___fltol@f1+2
  2004     0F0F  0849               	movf	?___fladd+1,w
  2005     0F10  00DD               	movwf	___fltol@f1+1
  2006     0F11  0848               	movf	?___fladd,w
  2007     0F12  00DC               	movwf	___fltol@f1
  2008     0F13  120A  158A  2788  120A  158A  	fcall	___fltol
  2009     0F18  1283               	bcf	3,5	;RP0=0, select bank0
  2010     0F19  1303               	bcf	3,6	;RP1=0, select bank0
  2011     0F1A  085D               	movf	?___fltol+1,w
  2012     0F1B  00F6               	movwf	_SERVO2+1
  2013     0F1C  085C               	movf	?___fltol,w
  2014     0F1D  00F5               	movwf	_SERVO2
  2015     0F1E                     l152:
  2016     0F1E  0008               	return
  2017     0F1F                     __end_of_conv_s2:
  2018                           
  2019                           	psect	text8
  2020     0E69                     __ptext8:	
  2021 ;; *************** function _conv_s1 *****************
  2022 ;; Defined at:
  2023 ;;		line 374 in file "main.c"
  2024 ;; Parameters:    Size  Location     Type
  2025 ;;  valor           2    0[BANK1 ] int 
  2026 ;; Auto vars:     Size  Location     Type
  2027 ;;		None
  2028 ;; Return value:  Size  Location     Type
  2029 ;;                  1    wreg      void 
  2030 ;; Registers used:
  2031 ;;		wreg, status,2, status,0, btemp+1, pclath, cstack
  2032 ;; Tracked objects:
  2033 ;;		On entry : 0/0
  2034 ;;		On exit  : 0/0
  2035 ;;		Unchanged: 0/0
  2036 ;; Data sizes:     COMMON   BANK0   BANK1   BANK3   BANK2
  2037 ;;      Params:         0       0       2       0       0
  2038 ;;      Locals:         0       0       0       0       0
  2039 ;;      Temps:          0       0       0       0       0
  2040 ;;      Totals:         0       0       2       0       0
  2041 ;;Total ram usage:        2 bytes
  2042 ;; Hardware stack levels used: 1
  2043 ;; Hardware stack levels required when called: 4
  2044 ;; This function calls:
  2045 ;;		___fladd
  2046 ;;		___flmul
  2047 ;;		___fltol
  2048 ;;		___xxtofl
  2049 ;; This function is called by:
  2050 ;;		_main
  2051 ;; This function uses a non-reentrant model
  2052 ;;
  2053                           
  2054     0E69                     _conv_s1:	
  2055                           ;psect for function _conv_s1
  2056                           
  2057     0E69                     l2299:	
  2058                           ;incstack = 0
  2059                           ; Regs used in _conv_s1: [wreg+status,2+status,0+btemp+1+pclath+cstack]
  2060                           
  2061                           
  2062                           ;main.c: 374: void conv_s1(int valor);main.c: 375: {;main.c: 376:     SERVO1 = (unsigned
      +                           short) (7+( (float)(13)/(255) ) * (valor-0));
  2063     0E69  1683               	bsf	3,5	;RP0=1, select bank1
  2064     0E6A  1303               	bcf	3,6	;RP1=0, select bank1
  2065     0E6B  0824               	movf	conv_s1@valor^(0+128),w
  2066     0E6C  1283               	bcf	3,5	;RP0=0, select bank0
  2067     0E6D  1303               	bcf	3,6	;RP1=0, select bank0
  2068     0E6E  00A0               	movwf	___xxtofl@val
  2069     0E6F  1683               	bsf	3,5	;RP0=1, select bank1
  2070     0E70  1303               	bcf	3,6	;RP1=0, select bank1
  2071     0E71  0825               	movf	(conv_s1@valor+1)^(0+128),w
  2072     0E72  1283               	bcf	3,5	;RP0=0, select bank0
  2073     0E73  1303               	bcf	3,6	;RP1=0, select bank0
  2074     0E74  00A1               	movwf	___xxtofl@val+1
  2075     0E75  3000               	movlw	0
  2076     0E76  1BA1               	btfsc	___xxtofl@val+1,7
  2077     0E77  30FF               	movlw	255
  2078     0E78  00A2               	movwf	___xxtofl@val+2
  2079     0E79  00A3               	movwf	___xxtofl@val+3
  2080     0E7A  3001               	movlw	1
  2081     0E7B  120A  118A  2704  120A  158A  	fcall	___xxtofl
  2082     0E80  1283               	bcf	3,5	;RP0=0, select bank0
  2083     0E81  1303               	bcf	3,6	;RP1=0, select bank0
  2084     0E82  0823               	movf	?___xxtofl+3,w
  2085     0E83  00B5               	movwf	___flmul@a+3
  2086     0E84  0822               	movf	?___xxtofl+2,w
  2087     0E85  00B4               	movwf	___flmul@a+2
  2088     0E86  0821               	movf	?___xxtofl+1,w
  2089     0E87  00B3               	movwf	___flmul@a+1
  2090     0E88  0820               	movf	?___xxtofl,w
  2091     0E89  00B2               	movwf	___flmul@a
  2092     0E8A  303D               	movlw	61
  2093     0E8B  00B1               	movwf	___flmul@b+3
  2094     0E8C  3050               	movlw	80
  2095     0E8D  00B0               	movwf	___flmul@b+2
  2096     0E8E  30D0               	movlw	208
  2097     0E8F  00AF               	movwf	___flmul@b+1
  2098     0E90  30D1               	movlw	209
  2099     0E91  00AE               	movwf	___flmul@b
  2100     0E92  120A  118A  2028  120A  158A  	fcall	___flmul
  2101     0E97  1283               	bcf	3,5	;RP0=0, select bank0
  2102     0E98  1303               	bcf	3,6	;RP1=0, select bank0
  2103     0E99  0831               	movf	?___flmul+3,w
  2104     0E9A  00CF               	movwf	___fladd@a+3
  2105     0E9B  0830               	movf	?___flmul+2,w
  2106     0E9C  00CE               	movwf	___fladd@a+2
  2107     0E9D  082F               	movf	?___flmul+1,w
  2108     0E9E  00CD               	movwf	___fladd@a+1
  2109     0E9F  082E               	movf	?___flmul,w
  2110     0EA0  00CC               	movwf	___fladd@a
  2111     0EA1  3040               	movlw	64
  2112     0EA2  00CB               	movwf	___fladd@b+3
  2113     0EA3  30E0               	movlw	224
  2114     0EA4  00CA               	movwf	___fladd@b+2
  2115     0EA5  3000               	movlw	0
  2116     0EA6  00C9               	movwf	___fladd@b+1
  2117     0EA7  3000               	movlw	0
  2118     0EA8  00C8               	movwf	___fladd@b
  2119     0EA9  120A  118A  236D  120A  158A  	fcall	___fladd
  2120     0EAE  1283               	bcf	3,5	;RP0=0, select bank0
  2121     0EAF  1303               	bcf	3,6	;RP1=0, select bank0
  2122     0EB0  084B               	movf	?___fladd+3,w
  2123     0EB1  00DF               	movwf	___fltol@f1+3
  2124     0EB2  084A               	movf	?___fladd+2,w
  2125     0EB3  00DE               	movwf	___fltol@f1+2
  2126     0EB4  0849               	movf	?___fladd+1,w
  2127     0EB5  00DD               	movwf	___fltol@f1+1
  2128     0EB6  0848               	movf	?___fladd,w
  2129     0EB7  00DC               	movwf	___fltol@f1
  2130     0EB8  120A  158A  2788  120A  158A  	fcall	___fltol
  2131     0EBD  1283               	bcf	3,5	;RP0=0, select bank0
  2132     0EBE  1303               	bcf	3,6	;RP1=0, select bank0
  2133     0EBF  085D               	movf	?___fltol+1,w
  2134     0EC0  00F8               	movwf	_SERVO1+1
  2135     0EC1  085C               	movf	?___fltol,w
  2136     0EC2  00F7               	movwf	_SERVO1
  2137     0EC3                     l149:
  2138     0EC3  0008               	return
  2139     0EC4                     __end_of_conv_s1:
  2140                           
  2141                           	psect	text9
  2142     0704                     __ptext9:	
  2143 ;; *************** function ___xxtofl *****************
  2144 ;; Defined at:
  2145 ;;		line 10 in file "C:\Program Files\Microchip\xc8\v2.40\pic\sources\c90\common\xxtofl.c"
  2146 ;; Parameters:    Size  Location     Type
  2147 ;;  sign            1    wreg     unsigned char 
  2148 ;;  val             4    0[BANK0 ] long 
  2149 ;; Auto vars:     Size  Location     Type
  2150 ;;  sign            1    8[BANK0 ] unsigned char 
  2151 ;;  arg             4   10[BANK0 ] unsigned long 
  2152 ;;  exp             1    9[BANK0 ] unsigned char 
  2153 ;; Return value:  Size  Location     Type
  2154 ;;                  4    0[BANK0 ] unsigned char 
  2155 ;; Registers used:
  2156 ;;		wreg, status,2, status,0
  2157 ;; Tracked objects:
  2158 ;;		On entry : 0/0
  2159 ;;		On exit  : 0/0
  2160 ;;		Unchanged: 0/0
  2161 ;; Data sizes:     COMMON   BANK0   BANK1   BANK3   BANK2
  2162 ;;      Params:         0       4       0       0       0
  2163 ;;      Locals:         0       6       0       0       0
  2164 ;;      Temps:          0       4       0       0       0
  2165 ;;      Totals:         0      14       0       0       0
  2166 ;;Total ram usage:       14 bytes
  2167 ;; Hardware stack levels used: 1
  2168 ;; Hardware stack levels required when called: 2
  2169 ;; This function calls:
  2170 ;;		Nothing
  2171 ;; This function is called by:
  2172 ;;		_conv_s1
  2173 ;;		_conv_s2
  2174 ;; This function uses a non-reentrant model
  2175 ;;
  2176                           
  2177     0704                     ___xxtofl:	
  2178                           ;psect for function ___xxtofl
  2179                           
  2180                           
  2181                           ;incstack = 0
  2182                           ; Regs used in ___xxtofl: [wreg+status,2+status,0]
  2183                           ;___xxtofl@sign stored from wreg
  2184     0704  1283               	bcf	3,5	;RP0=0, select bank0
  2185     0705  1303               	bcf	3,6	;RP1=0, select bank0
  2186     0706  00A8               	movwf	___xxtofl@sign
  2187     0707                     l2251:
  2188     0707  0828               	movf	___xxtofl@sign,w
  2189     0708  1903               	btfsc	3,2
  2190     0709  2F0B               	goto	u3191
  2191     070A  2F0C               	goto	u3190
  2192     070B                     u3191:
  2193     070B  2F20               	goto	l2257
  2194     070C                     u3190:
  2195     070C                     l2253:
  2196     070C  1FA3               	btfss	___xxtofl@val+3,7
  2197     070D  2F0F               	goto	u3201
  2198     070E  2F10               	goto	u3200
  2199     070F                     u3201:
  2200     070F  2F20               	goto	l2257
  2201     0710                     u3200:
  2202     0710                     l2255:
  2203     0710  0920               	comf	___xxtofl@val,w
  2204     0711  00AA               	movwf	___xxtofl@arg
  2205     0712  0921               	comf	___xxtofl@val+1,w
  2206     0713  00AB               	movwf	___xxtofl@arg+1
  2207     0714  0922               	comf	___xxtofl@val+2,w
  2208     0715  00AC               	movwf	___xxtofl@arg+2
  2209     0716  0923               	comf	___xxtofl@val+3,w
  2210     0717  00AD               	movwf	___xxtofl@arg+3
  2211     0718  0AAA               	incf	___xxtofl@arg,f
  2212     0719  1903               	skipnz
  2213     071A  0AAB               	incf	___xxtofl@arg+1,f
  2214     071B  1903               	skipnz
  2215     071C  0AAC               	incf	___xxtofl@arg+2,f
  2216     071D  1903               	skipnz
  2217     071E  0AAD               	incf	___xxtofl@arg+3,f
  2218     071F  2F28               	goto	l674
  2219     0720                     l2257:
  2220     0720  0823               	movf	___xxtofl@val+3,w
  2221     0721  00AD               	movwf	___xxtofl@arg+3
  2222     0722  0822               	movf	___xxtofl@val+2,w
  2223     0723  00AC               	movwf	___xxtofl@arg+2
  2224     0724  0821               	movf	___xxtofl@val+1,w
  2225     0725  00AB               	movwf	___xxtofl@arg+1
  2226     0726  0820               	movf	___xxtofl@val,w
  2227     0727  00AA               	movwf	___xxtofl@arg
  2228     0728                     l674:
  2229     0728  0823               	movf	___xxtofl@val+3,w
  2230     0729  0422               	iorwf	___xxtofl@val+2,w
  2231     072A  0421               	iorwf	___xxtofl@val+1,w
  2232     072B  0420               	iorwf	___xxtofl@val,w
  2233     072C  1D03               	skipz
  2234     072D  2F2F               	goto	u3211
  2235     072E  2F30               	goto	u3210
  2236     072F                     u3211:
  2237     072F  2F39               	goto	l2263
  2238     0730                     u3210:
  2239     0730                     l2259:
  2240     0730  3000               	movlw	0
  2241     0731  00A3               	movwf	?___xxtofl+3
  2242     0732  3000               	movlw	0
  2243     0733  00A2               	movwf	?___xxtofl+2
  2244     0734  3000               	movlw	0
  2245     0735  00A1               	movwf	?___xxtofl+1
  2246     0736  3000               	movlw	0
  2247     0737  00A0               	movwf	?___xxtofl
  2248     0738  2FBD               	goto	l676
  2249     0739                     l2263:
  2250     0739  3096               	movlw	150
  2251     073A  00A9               	movwf	___xxtofl@exp
  2252     073B  2F49               	goto	l2267
  2253     073C                     l2265:
  2254     073C  3001               	movlw	1
  2255     073D  00A4               	movwf	??___xxtofl
  2256     073E  0824               	movf	??___xxtofl,w
  2257     073F  07A9               	addwf	___xxtofl@exp,f
  2258     0740  3001               	movlw	1
  2259     0741                     u3225:
  2260     0741  1003               	clrc
  2261     0742  0CAD               	rrf	___xxtofl@arg+3,f
  2262     0743  0CAC               	rrf	___xxtofl@arg+2,f
  2263     0744  0CAB               	rrf	___xxtofl@arg+1,f
  2264     0745  0CAA               	rrf	___xxtofl@arg,f
  2265     0746  3EFF               	addlw	-1
  2266     0747  1D03               	skipz
  2267     0748  2F41               	goto	u3225
  2268     0749                     l2267:
  2269     0749  30FE               	movlw	254
  2270     074A  052D               	andwf	___xxtofl@arg+3,w
  2271     074B  1D03               	btfss	3,2
  2272     074C  2F4E               	goto	u3231
  2273     074D  2F4F               	goto	u3230
  2274     074E                     u3231:
  2275     074E  2F3C               	goto	l2265
  2276     074F                     u3230:
  2277     074F  2F6B               	goto	l680
  2278     0750                     l2269:
  2279     0750  3001               	movlw	1
  2280     0751  00A4               	movwf	??___xxtofl
  2281     0752  0824               	movf	??___xxtofl,w
  2282     0753  07A9               	addwf	___xxtofl@exp,f
  2283     0754                     l2271:
  2284     0754  3001               	movlw	1
  2285     0755  07AA               	addwf	___xxtofl@arg,f
  2286     0756  3000               	movlw	0
  2287     0757  1803               	skipnc
  2288     0758  3001               	movlw	1
  2289     0759  07AB               	addwf	___xxtofl@arg+1,f
  2290     075A  3000               	movlw	0
  2291     075B  1803               	skipnc
  2292     075C  3001               	movlw	1
  2293     075D  07AC               	addwf	___xxtofl@arg+2,f
  2294     075E  3000               	movlw	0
  2295     075F  1803               	skipnc
  2296     0760  3001               	movlw	1
  2297     0761  07AD               	addwf	___xxtofl@arg+3,f
  2298     0762                     l2273:
  2299     0762  3001               	movlw	1
  2300     0763                     u3245:
  2301     0763  1003               	clrc
  2302     0764  0CAD               	rrf	___xxtofl@arg+3,f
  2303     0765  0CAC               	rrf	___xxtofl@arg+2,f
  2304     0766  0CAB               	rrf	___xxtofl@arg+1,f
  2305     0767  0CAA               	rrf	___xxtofl@arg,f
  2306     0768  3EFF               	addlw	-1
  2307     0769  1D03               	skipz
  2308     076A  2F63               	goto	u3245
  2309     076B                     l680:
  2310     076B  30FF               	movlw	255
  2311     076C  052D               	andwf	___xxtofl@arg+3,w
  2312     076D  1D03               	btfss	3,2
  2313     076E  2F70               	goto	u3251
  2314     076F  2F71               	goto	u3250
  2315     0770                     u3251:
  2316     0770  2F50               	goto	l2269
  2317     0771                     u3250:
  2318     0771  2F7D               	goto	l2277
  2319     0772                     l2275:
  2320     0772  3001               	movlw	1
  2321     0773  02A9               	subwf	___xxtofl@exp,f
  2322     0774  3001               	movlw	1
  2323     0775  00A4               	movwf	??___xxtofl
  2324     0776                     u3265:
  2325     0776  1003               	clrc
  2326     0777  0DAA               	rlf	___xxtofl@arg,f
  2327     0778  0DAB               	rlf	___xxtofl@arg+1,f
  2328     0779  0DAC               	rlf	___xxtofl@arg+2,f
  2329     077A  0DAD               	rlf	___xxtofl@arg+3,f
  2330     077B  0BA4               	decfsz	??___xxtofl,f
  2331     077C  2F76               	goto	u3265
  2332     077D                     l2277:
  2333     077D  1BAC               	btfsc	___xxtofl@arg+2,7
  2334     077E  2F80               	goto	u3271
  2335     077F  2F81               	goto	u3270
  2336     0780                     u3271:
  2337     0780  2F87               	goto	l687
  2338     0781                     u3270:
  2339     0781                     l2279:
  2340     0781  3002               	movlw	2
  2341     0782  0229               	subwf	___xxtofl@exp,w
  2342     0783  1803               	skipnc
  2343     0784  2F86               	goto	u3281
  2344     0785  2F87               	goto	u3280
  2345     0786                     u3281:
  2346     0786  2F72               	goto	l2275
  2347     0787                     u3280:
  2348     0787                     l687:
  2349     0787  1829               	btfsc	___xxtofl@exp,0
  2350     0788  2F8A               	goto	u3291
  2351     0789  2F8B               	goto	u3290
  2352     078A                     u3291:
  2353     078A  2F93               	goto	l688
  2354     078B                     u3290:
  2355     078B                     l2281:
  2356     078B  30FF               	movlw	255
  2357     078C  05AA               	andwf	___xxtofl@arg,f
  2358     078D  30FF               	movlw	255
  2359     078E  05AB               	andwf	___xxtofl@arg+1,f
  2360     078F  307F               	movlw	127
  2361     0790  05AC               	andwf	___xxtofl@arg+2,f
  2362     0791  30FF               	movlw	255
  2363     0792  05AD               	andwf	___xxtofl@arg+3,f
  2364     0793                     l688:
  2365     0793  1003               	clrc
  2366     0794  0CA9               	rrf	___xxtofl@exp,f
  2367     0795                     l2283:
  2368     0795  0829               	movf	___xxtofl@exp,w
  2369     0796  00A4               	movwf	??___xxtofl
  2370     0797  01A5               	clrf	??___xxtofl+1
  2371     0798  01A6               	clrf	??___xxtofl+2
  2372     0799  01A7               	clrf	??___xxtofl+3
  2373     079A  3018               	movlw	24
  2374     079B                     u3305:
  2375     079B  1003               	clrc
  2376     079C  0DA4               	rlf	??___xxtofl,f
  2377     079D  0DA5               	rlf	??___xxtofl+1,f
  2378     079E  0DA6               	rlf	??___xxtofl+2,f
  2379     079F  0DA7               	rlf	??___xxtofl+3,f
  2380     07A0                     u3300:
  2381     07A0  3EFF               	addlw	-1
  2382     07A1  1D03               	skipz
  2383     07A2  2F9B               	goto	u3305
  2384     07A3  0824               	movf	??___xxtofl,w
  2385     07A4  04AA               	iorwf	___xxtofl@arg,f
  2386     07A5  0825               	movf	??___xxtofl+1,w
  2387     07A6  04AB               	iorwf	___xxtofl@arg+1,f
  2388     07A7  0826               	movf	??___xxtofl+2,w
  2389     07A8  04AC               	iorwf	___xxtofl@arg+2,f
  2390     07A9  0827               	movf	??___xxtofl+3,w
  2391     07AA  04AD               	iorwf	___xxtofl@arg+3,f
  2392     07AB                     l2285:
  2393     07AB  0828               	movf	___xxtofl@sign,w
  2394     07AC  1903               	btfsc	3,2
  2395     07AD  2FAF               	goto	u3311
  2396     07AE  2FB0               	goto	u3310
  2397     07AF                     u3311:
  2398     07AF  2FB5               	goto	l2291
  2399     07B0                     u3310:
  2400     07B0                     l2287:
  2401     07B0  1FA3               	btfss	___xxtofl@val+3,7
  2402     07B1  2FB3               	goto	u3321
  2403     07B2  2FB4               	goto	u3320
  2404     07B3                     u3321:
  2405     07B3  2FB5               	goto	l2291
  2406     07B4                     u3320:
  2407     07B4                     l2289:
  2408     07B4  17AD               	bsf	___xxtofl@arg+3,7
  2409     07B5                     l2291:
  2410     07B5  082D               	movf	___xxtofl@arg+3,w
  2411     07B6  00A3               	movwf	?___xxtofl+3
  2412     07B7  082C               	movf	___xxtofl@arg+2,w
  2413     07B8  00A2               	movwf	?___xxtofl+2
  2414     07B9  082B               	movf	___xxtofl@arg+1,w
  2415     07BA  00A1               	movwf	?___xxtofl+1
  2416     07BB  082A               	movf	___xxtofl@arg,w
  2417     07BC  00A0               	movwf	?___xxtofl
  2418     07BD                     l676:
  2419     07BD  0008               	return
  2420     07BE                     __end_of___xxtofl:
  2421                           
  2422                           	psect	text10
  2423     0F88                     __ptext10:	
  2424 ;; *************** function ___fltol *****************
  2425 ;; Defined at:
  2426 ;;		line 43 in file "C:\Program Files\Microchip\xc8\v2.40\pic\sources\c90\common\fltol.c"
  2427 ;; Parameters:    Size  Location     Type
  2428 ;;  f1              4   60[BANK0 ] unsigned char 
  2429 ;; Auto vars:     Size  Location     Type
  2430 ;;  exp1            1   69[BANK0 ] unsigned char 
  2431 ;;  sign1           1   68[BANK0 ] unsigned char 
  2432 ;; Return value:  Size  Location     Type
  2433 ;;                  4   60[BANK0 ] long 
  2434 ;; Registers used:
  2435 ;;		wreg, status,2, status,0
  2436 ;; Tracked objects:
  2437 ;;		On entry : 0/0
  2438 ;;		On exit  : 0/0
  2439 ;;		Unchanged: 0/0
  2440 ;; Data sizes:     COMMON   BANK0   BANK1   BANK3   BANK2
  2441 ;;      Params:         0       4       0       0       0
  2442 ;;      Locals:         0       2       0       0       0
  2443 ;;      Temps:          0       4       0       0       0
  2444 ;;      Totals:         0      10       0       0       0
  2445 ;;Total ram usage:       10 bytes
  2446 ;; Hardware stack levels used: 1
  2447 ;; Hardware stack levels required when called: 2
  2448 ;; This function calls:
  2449 ;;		Nothing
  2450 ;; This function is called by:
  2451 ;;		_conv_s1
  2452 ;;		_conv_s2
  2453 ;; This function uses a non-reentrant model
  2454 ;;
  2455                           
  2456     0F88                     ___fltol:	
  2457                           ;psect for function ___fltol
  2458                           
  2459     0F88                     l1487:	
  2460                           ;incstack = 0
  2461                           ; Regs used in ___fltol: [wreg+status,2+status,0]
  2462                           
  2463     0F88  1003               	clrc
  2464     0F89  1283               	bcf	3,5	;RP0=0, select bank0
  2465     0F8A  1303               	bcf	3,6	;RP1=0, select bank0
  2466     0F8B  0D5E               	rlf	___fltol@f1+2,w
  2467     0F8C  0D5F               	rlf	___fltol@f1+3,w
  2468     0F8D  00E5               	movwf	___fltol@exp1
  2469     0F8E  0865               	movf	___fltol@exp1,w
  2470     0F8F  1D03               	btfss	3,2
  2471     0F90  2F92               	goto	u1551
  2472     0F91  2F93               	goto	u1550
  2473     0F92                     u1551:
  2474     0F92  2F9C               	goto	l1493
  2475     0F93                     u1550:
  2476     0F93                     l1489:
  2477     0F93  3000               	movlw	0
  2478     0F94  00DF               	movwf	?___fltol+3
  2479     0F95  3000               	movlw	0
  2480     0F96  00DE               	movwf	?___fltol+2
  2481     0F97  3000               	movlw	0
  2482     0F98  00DD               	movwf	?___fltol+1
  2483     0F99  3000               	movlw	0
  2484     0F9A  00DC               	movwf	?___fltol
  2485     0F9B  2FFF               	goto	l427
  2486     0F9C                     l1493:
  2487     0F9C  085C               	movf	___fltol@f1,w
  2488     0F9D  00E0               	movwf	??___fltol
  2489     0F9E  085D               	movf	___fltol@f1+1,w
  2490     0F9F  00E1               	movwf	??___fltol+1
  2491     0FA0  085E               	movf	___fltol@f1+2,w
  2492     0FA1  00E2               	movwf	??___fltol+2
  2493     0FA2  085F               	movf	___fltol@f1+3,w
  2494     0FA3  00E3               	movwf	??___fltol+3
  2495     0FA4  301F               	movlw	31
  2496     0FA5                     u1565:
  2497     0FA5  1003               	clrc
  2498     0FA6  0CE3               	rrf	??___fltol+3,f
  2499     0FA7  0CE2               	rrf	??___fltol+2,f
  2500     0FA8  0CE1               	rrf	??___fltol+1,f
  2501     0FA9  0CE0               	rrf	??___fltol,f
  2502     0FAA                     u1560:
  2503     0FAA  3EFF               	addlw	-1
  2504     0FAB  1D03               	skipz
  2505     0FAC  2FA5               	goto	u1565
  2506     0FAD  0860               	movf	??___fltol,w
  2507     0FAE  00E4               	movwf	___fltol@sign1
  2508     0FAF                     l1495:
  2509     0FAF  17DE               	bsf	___fltol@f1+2,7
  2510     0FB0                     l1497:
  2511     0FB0  30FF               	movlw	255
  2512     0FB1  05DC               	andwf	___fltol@f1,f
  2513     0FB2  30FF               	movlw	255
  2514     0FB3  05DD               	andwf	___fltol@f1+1,f
  2515     0FB4  30FF               	movlw	255
  2516     0FB5  05DE               	andwf	___fltol@f1+2,f
  2517     0FB6  3000               	movlw	0
  2518     0FB7  05DF               	andwf	___fltol@f1+3,f
  2519     0FB8                     l1499:
  2520     0FB8  3096               	movlw	150
  2521     0FB9  02E5               	subwf	___fltol@exp1,f
  2522     0FBA                     l1501:
  2523     0FBA  1FE5               	btfss	___fltol@exp1,7
  2524     0FBB  2FBD               	goto	u1571
  2525     0FBC  2FBE               	goto	u1570
  2526     0FBD                     u1571:
  2527     0FBD  2FD8               	goto	l1511
  2528     0FBE                     u1570:
  2529     0FBE                     l1503:
  2530     0FBE  0865               	movf	___fltol@exp1,w
  2531     0FBF  3A80               	xorlw	128
  2532     0FC0  3E97               	addlw	151
  2533     0FC1  1803               	skipnc
  2534     0FC2  2FC4               	goto	u1581
  2535     0FC3  2FC5               	goto	u1580
  2536     0FC4                     u1581:
  2537     0FC4  2FC6               	goto	l1509
  2538     0FC5                     u1580:
  2539     0FC5  2F93               	goto	l1489
  2540     0FC6                     l1509:
  2541     0FC6  3001               	movlw	1
  2542     0FC7                     u1595:
  2543     0FC7  1003               	clrc
  2544     0FC8  0CDF               	rrf	___fltol@f1+3,f
  2545     0FC9  0CDE               	rrf	___fltol@f1+2,f
  2546     0FCA  0CDD               	rrf	___fltol@f1+1,f
  2547     0FCB  0CDC               	rrf	___fltol@f1,f
  2548     0FCC  3EFF               	addlw	-1
  2549     0FCD  1D03               	skipz
  2550     0FCE  2FC7               	goto	u1595
  2551     0FCF  3001               	movlw	1
  2552     0FD0  00E0               	movwf	??___fltol
  2553     0FD1  0860               	movf	??___fltol,w
  2554     0FD2  07E5               	addwf	___fltol@exp1,f
  2555     0FD3  1D03               	btfss	3,2
  2556     0FD4  2FD6               	goto	u1601
  2557     0FD5  2FD7               	goto	u1600
  2558     0FD6                     u1601:
  2559     0FD6  2FC6               	goto	l1509
  2560     0FD7                     u1600:
  2561     0FD7  2FEF               	goto	l1519
  2562     0FD8                     l1511:
  2563     0FD8  3020               	movlw	32
  2564     0FD9  0265               	subwf	___fltol@exp1,w
  2565     0FDA  1C03               	skipc
  2566     0FDB  2FDD               	goto	u1611
  2567     0FDC  2FDE               	goto	u1610
  2568     0FDD                     u1611:
  2569     0FDD  2FEA               	goto	l434
  2570     0FDE                     u1610:
  2571     0FDE  2F93               	goto	l1489
  2572     0FDF                     l1517:
  2573     0FDF  3001               	movlw	1
  2574     0FE0  00E0               	movwf	??___fltol
  2575     0FE1                     u1625:
  2576     0FE1  1003               	clrc
  2577     0FE2  0DDC               	rlf	___fltol@f1,f
  2578     0FE3  0DDD               	rlf	___fltol@f1+1,f
  2579     0FE4  0DDE               	rlf	___fltol@f1+2,f
  2580     0FE5  0DDF               	rlf	___fltol@f1+3,f
  2581     0FE6  0BE0               	decfsz	??___fltol,f
  2582     0FE7  2FE1               	goto	u1625
  2583     0FE8  3001               	movlw	1
  2584     0FE9  02E5               	subwf	___fltol@exp1,f
  2585     0FEA                     l434:
  2586     0FEA  0865               	movf	___fltol@exp1,w
  2587     0FEB  1D03               	btfss	3,2
  2588     0FEC  2FEE               	goto	u1631
  2589     0FED  2FEF               	goto	u1630
  2590     0FEE                     u1631:
  2591     0FEE  2FDF               	goto	l1517
  2592     0FEF                     u1630:
  2593     0FEF                     l1519:
  2594     0FEF  0864               	movf	___fltol@sign1,w
  2595     0FF0  1903               	btfsc	3,2
  2596     0FF1  2FF3               	goto	u1641
  2597     0FF2  2FF4               	goto	u1640
  2598     0FF3                     u1641:
  2599     0FF3  2FFF               	goto	l437
  2600     0FF4                     u1640:
  2601     0FF4                     l1521:
  2602     0FF4  09DC               	comf	___fltol@f1,f
  2603     0FF5  09DD               	comf	___fltol@f1+1,f
  2604     0FF6  09DE               	comf	___fltol@f1+2,f
  2605     0FF7  09DF               	comf	___fltol@f1+3,f
  2606     0FF8  0ADC               	incf	___fltol@f1,f
  2607     0FF9  1903               	skipnz
  2608     0FFA  0ADD               	incf	___fltol@f1+1,f
  2609     0FFB  1903               	skipnz
  2610     0FFC  0ADE               	incf	___fltol@f1+2,f
  2611     0FFD  1903               	skipnz
  2612     0FFE  0ADF               	incf	___fltol@f1+3,f
  2613     0FFF                     l437:
  2614     0FFF                     l427:
  2615     0FFF  0008               	return
  2616     1000                     __end_of___fltol:
  2617                           
  2618                           	psect	text11
  2619     0028                     __ptext11:	
  2620 ;; *************** function ___flmul *****************
  2621 ;; Defined at:
  2622 ;;		line 8 in file "C:\Program Files\Microchip\xc8\v2.40\pic\sources\c90\common\sprcmul.c"
  2623 ;; Parameters:    Size  Location     Type
  2624 ;;  b               4   14[BANK0 ] long 
  2625 ;;  a               4   18[BANK0 ] long 
  2626 ;; Auto vars:     Size  Location     Type
  2627 ;;  prod            4   34[BANK0 ] struct .
  2628 ;;  grs             4   29[BANK0 ] unsigned long 
  2629 ;;  temp            2   38[BANK0 ] struct .
  2630 ;;  bexp            1   33[BANK0 ] unsigned char 
  2631 ;;  aexp            1   28[BANK0 ] unsigned char 
  2632 ;;  sign            1   27[BANK0 ] unsigned char 
  2633 ;; Return value:  Size  Location     Type
  2634 ;;                  4   14[BANK0 ] unsigned char 
  2635 ;; Registers used:
  2636 ;;		wreg, status,2, status,0, btemp+1, pclath, cstack
  2637 ;; Tracked objects:
  2638 ;;		On entry : 0/0
  2639 ;;		On exit  : 0/0
  2640 ;;		Unchanged: 0/0
  2641 ;; Data sizes:     COMMON   BANK0   BANK1   BANK3   BANK2
  2642 ;;      Params:         0       8       0       0       0
  2643 ;;      Locals:         0      13       0       0       0
  2644 ;;      Temps:          0       5       0       0       0
  2645 ;;      Totals:         0      26       0       0       0
  2646 ;;Total ram usage:       26 bytes
  2647 ;; Hardware stack levels used: 1
  2648 ;; Hardware stack levels required when called: 3
  2649 ;; This function calls:
  2650 ;;		__Umul8_16
  2651 ;; This function is called by:
  2652 ;;		_conv_s1
  2653 ;;		_conv_s2
  2654 ;; This function uses a non-reentrant model
  2655 ;;
  2656                           
  2657     0028                     ___flmul:	
  2658                           ;psect for function ___flmul
  2659                           
  2660     0028                     l2111:	
  2661                           ;incstack = 0
  2662                           ; Regs used in ___flmul: [wreg+status,2+status,0+btemp+1+pclath+cstack]
  2663                           
  2664     0028  1283               	bcf	3,5	;RP0=0, select bank0
  2665     0029  1303               	bcf	3,6	;RP1=0, select bank0
  2666     002A  0831               	movf	___flmul@b+3,w
  2667     002B  3980               	andlw	128
  2668     002C  00BB               	movwf	___flmul@sign
  2669     002D                     l2113:
  2670     002D  0831               	movf	___flmul@b+3,w
  2671     002E  00B6               	movwf	??___flmul
  2672     002F  0736               	addwf	??___flmul,w
  2673     0030  00C1               	movwf	___flmul@bexp
  2674     0031                     l2115:
  2675     0031  1FB0               	btfss	___flmul@b+2,7
  2676     0032  2834               	goto	u2821
  2677     0033  2835               	goto	u2820
  2678     0034                     u2821:
  2679     0034  2836               	goto	l2119
  2680     0035                     u2820:
  2681     0035                     l2117:
  2682     0035  1441               	bsf	___flmul@bexp,0
  2683     0036                     l2119:
  2684     0036  0841               	movf	___flmul@bexp,w
  2685     0037  1903               	btfsc	3,2
  2686     0038  283A               	goto	u2831
  2687     0039  283B               	goto	u2830
  2688     003A                     u2831:
  2689     003A  284A               	goto	l2127
  2690     003B                     u2830:
  2691     003B                     l2121:
  2692     003B  0A41               	incf	___flmul@bexp,w
  2693     003C  1D03               	btfss	3,2
  2694     003D  283F               	goto	u2841
  2695     003E  2840               	goto	u2840
  2696     003F                     u2841:
  2697     003F  2848               	goto	l2125
  2698     0040                     u2840:
  2699     0040                     l2123:
  2700     0040  3000               	movlw	0
  2701     0041  00B1               	movwf	___flmul@b+3
  2702     0042  3000               	movlw	0
  2703     0043  00B0               	movwf	___flmul@b+2
  2704     0044  3000               	movlw	0
  2705     0045  00AF               	movwf	___flmul@b+1
  2706     0046  3000               	movlw	0
  2707     0047  00AE               	movwf	___flmul@b
  2708     0048                     l2125:
  2709     0048  17B0               	bsf	___flmul@b+2,7
  2710     0049  2852               	goto	l2129
  2711     004A                     l2127:
  2712     004A  3000               	movlw	0
  2713     004B  00B1               	movwf	___flmul@b+3
  2714     004C  3000               	movlw	0
  2715     004D  00B0               	movwf	___flmul@b+2
  2716     004E  3000               	movlw	0
  2717     004F  00AF               	movwf	___flmul@b+1
  2718     0050  3000               	movlw	0
  2719     0051  00AE               	movwf	___flmul@b
  2720     0052                     l2129:
  2721     0052  0835               	movf	___flmul@a+3,w
  2722     0053  3980               	andlw	128
  2723     0054  00B6               	movwf	??___flmul
  2724     0055  0836               	movf	??___flmul,w
  2725     0056  06BB               	xorwf	___flmul@sign,f
  2726     0057                     l2131:
  2727     0057  0835               	movf	___flmul@a+3,w
  2728     0058  00B6               	movwf	??___flmul
  2729     0059  0736               	addwf	??___flmul,w
  2730     005A  00BC               	movwf	___flmul@aexp
  2731     005B                     l2133:
  2732     005B  1FB4               	btfss	___flmul@a+2,7
  2733     005C  285E               	goto	u2851
  2734     005D  285F               	goto	u2850
  2735     005E                     u2851:
  2736     005E  2860               	goto	l2137
  2737     005F                     u2850:
  2738     005F                     l2135:
  2739     005F  143C               	bsf	___flmul@aexp,0
  2740     0060                     l2137:
  2741     0060  083C               	movf	___flmul@aexp,w
  2742     0061  1903               	btfsc	3,2
  2743     0062  2864               	goto	u2861
  2744     0063  2865               	goto	u2860
  2745     0064                     u2861:
  2746     0064  2874               	goto	l2145
  2747     0065                     u2860:
  2748     0065                     l2139:
  2749     0065  0A3C               	incf	___flmul@aexp,w
  2750     0066  1D03               	btfss	3,2
  2751     0067  2869               	goto	u2871
  2752     0068  286A               	goto	u2870
  2753     0069                     u2871:
  2754     0069  2872               	goto	l2143
  2755     006A                     u2870:
  2756     006A                     l2141:
  2757     006A  3000               	movlw	0
  2758     006B  00B5               	movwf	___flmul@a+3
  2759     006C  3000               	movlw	0
  2760     006D  00B4               	movwf	___flmul@a+2
  2761     006E  3000               	movlw	0
  2762     006F  00B3               	movwf	___flmul@a+1
  2763     0070  3000               	movlw	0
  2764     0071  00B2               	movwf	___flmul@a
  2765     0072                     l2143:
  2766     0072  17B4               	bsf	___flmul@a+2,7
  2767     0073  287C               	goto	l2147
  2768     0074                     l2145:
  2769     0074  3000               	movlw	0
  2770     0075  00B5               	movwf	___flmul@a+3
  2771     0076  3000               	movlw	0
  2772     0077  00B4               	movwf	___flmul@a+2
  2773     0078  3000               	movlw	0
  2774     0079  00B3               	movwf	___flmul@a+1
  2775     007A  3000               	movlw	0
  2776     007B  00B2               	movwf	___flmul@a
  2777     007C                     l2147:
  2778     007C  083C               	movf	___flmul@aexp,w
  2779     007D  1903               	btfsc	3,2
  2780     007E  2880               	goto	u2881
  2781     007F  2881               	goto	u2880
  2782     0080                     u2881:
  2783     0080  2886               	goto	l2151
  2784     0081                     u2880:
  2785     0081                     l2149:
  2786     0081  0841               	movf	___flmul@bexp,w
  2787     0082  1D03               	btfss	3,2
  2788     0083  2885               	goto	u2891
  2789     0084  2886               	goto	u2890
  2790     0085                     u2891:
  2791     0085  288F               	goto	l2155
  2792     0086                     u2890:
  2793     0086                     l2151:
  2794     0086  3000               	movlw	0
  2795     0087  00B1               	movwf	?___flmul+3
  2796     0088  3000               	movlw	0
  2797     0089  00B0               	movwf	?___flmul+2
  2798     008A  3000               	movlw	0
  2799     008B  00AF               	movwf	?___flmul+1
  2800     008C  3000               	movlw	0
  2801     008D  00AE               	movwf	?___flmul
  2802     008E  2B6C               	goto	l630
  2803     008F                     l2155:
  2804     008F  082E               	movf	___flmul@b,w
  2805     0090  00A0               	movwf	__Umul8_16@multiplicand
  2806     0091  0834               	movf	___flmul@a+2,w
  2807     0092  120A  158A  25A7  120A  118A  	fcall	__Umul8_16
  2808     0097  1283               	bcf	3,5	;RP0=0, select bank0
  2809     0098  1303               	bcf	3,6	;RP1=0, select bank0
  2810     0099  0821               	movf	?__Umul8_16+1,w
  2811     009A  00C7               	movwf	___flmul@temp+1
  2812     009B  0820               	movf	?__Umul8_16,w
  2813     009C  00C6               	movwf	___flmul@temp
  2814     009D                     l2157:
  2815     009D  0846               	movf	___flmul@temp,w
  2816     009E  00B6               	movwf	??___flmul
  2817     009F  01B7               	clrf	??___flmul+1
  2818     00A0  01B8               	clrf	??___flmul+2
  2819     00A1  01B9               	clrf	??___flmul+3
  2820     00A2  0839               	movf	??___flmul+3,w
  2821     00A3  00C0               	movwf	___flmul@grs+3
  2822     00A4  0838               	movf	??___flmul+2,w
  2823     00A5  00BF               	movwf	___flmul@grs+2
  2824     00A6  0837               	movf	??___flmul+1,w
  2825     00A7  00BE               	movwf	___flmul@grs+1
  2826     00A8  0836               	movf	??___flmul,w
  2827     00A9  00BD               	movwf	___flmul@grs
  2828     00AA                     l2159:
  2829     00AA  0847               	movf	___flmul@temp+1,w
  2830     00AB  00B6               	movwf	??___flmul
  2831     00AC  01B7               	clrf	??___flmul+1
  2832     00AD  01B8               	clrf	??___flmul+2
  2833     00AE  01B9               	clrf	??___flmul+3
  2834     00AF  0839               	movf	??___flmul+3,w
  2835     00B0  00C5               	movwf	___flmul@prod+3
  2836     00B1  0838               	movf	??___flmul+2,w
  2837     00B2  00C4               	movwf	___flmul@prod+2
  2838     00B3  0837               	movf	??___flmul+1,w
  2839     00B4  00C3               	movwf	___flmul@prod+1
  2840     00B5  0836               	movf	??___flmul,w
  2841     00B6  00C2               	movwf	___flmul@prod
  2842     00B7  082F               	movf	___flmul@b+1,w
  2843     00B8  00A0               	movwf	__Umul8_16@multiplicand
  2844     00B9  0833               	movf	___flmul@a+1,w
  2845     00BA  120A  158A  25A7  120A  118A  	fcall	__Umul8_16
  2846     00BF  1283               	bcf	3,5	;RP0=0, select bank0
  2847     00C0  1303               	bcf	3,6	;RP1=0, select bank0
  2848     00C1  0821               	movf	?__Umul8_16+1,w
  2849     00C2  00C7               	movwf	___flmul@temp+1
  2850     00C3  0820               	movf	?__Umul8_16,w
  2851     00C4  00C6               	movwf	___flmul@temp
  2852     00C5                     l2161:
  2853     00C5  0846               	movf	___flmul@temp,w
  2854     00C6  00B6               	movwf	??___flmul
  2855     00C7  01B7               	clrf	??___flmul+1
  2856     00C8  01B8               	clrf	??___flmul+2
  2857     00C9  01B9               	clrf	??___flmul+3
  2858     00CA  0836               	movf	??___flmul,w
  2859     00CB  07BD               	addwf	___flmul@grs,f
  2860     00CC  0837               	movf	??___flmul+1,w
  2861     00CD  1103               	clrz
  2862     00CE  1803               	skipnc
  2863     00CF  3E01               	addlw	1
  2864     00D0  1903               	skipnz
  2865     00D1  28D3               	goto	u2901
  2866     00D2  07BE               	addwf	___flmul@grs+1,f
  2867     00D3                     u2901:
  2868     00D3  0838               	movf	??___flmul+2,w
  2869     00D4  1103               	clrz
  2870     00D5  1803               	skipnc
  2871     00D6  3E01               	addlw	1
  2872     00D7  1903               	skipnz
  2873     00D8  28DA               	goto	u2902
  2874     00D9  07BF               	addwf	___flmul@grs+2,f
  2875     00DA                     u2902:
  2876     00DA  0839               	movf	??___flmul+3,w
  2877     00DB  1103               	clrz
  2878     00DC  1803               	skipnc
  2879     00DD  3E01               	addlw	1
  2880     00DE  1903               	skipnz
  2881     00DF  28E1               	goto	u2903
  2882     00E0  07C0               	addwf	___flmul@grs+3,f
  2883     00E1                     u2903:
  2884     00E1                     l2163:
  2885     00E1  0847               	movf	___flmul@temp+1,w
  2886     00E2  00B6               	movwf	??___flmul
  2887     00E3  01B7               	clrf	??___flmul+1
  2888     00E4  01B8               	clrf	??___flmul+2
  2889     00E5  01B9               	clrf	??___flmul+3
  2890     00E6  0836               	movf	??___flmul,w
  2891     00E7  07C2               	addwf	___flmul@prod,f
  2892     00E8  0837               	movf	??___flmul+1,w
  2893     00E9  1103               	clrz
  2894     00EA  1803               	skipnc
  2895     00EB  3E01               	addlw	1
  2896     00EC  1903               	skipnz
  2897     00ED  28EF               	goto	u2911
  2898     00EE  07C3               	addwf	___flmul@prod+1,f
  2899     00EF                     u2911:
  2900     00EF  0838               	movf	??___flmul+2,w
  2901     00F0  1103               	clrz
  2902     00F1  1803               	skipnc
  2903     00F2  3E01               	addlw	1
  2904     00F3  1903               	skipnz
  2905     00F4  28F6               	goto	u2912
  2906     00F5  07C4               	addwf	___flmul@prod+2,f
  2907     00F6                     u2912:
  2908     00F6  0839               	movf	??___flmul+3,w
  2909     00F7  1103               	clrz
  2910     00F8  1803               	skipnc
  2911     00F9  3E01               	addlw	1
  2912     00FA  1903               	skipnz
  2913     00FB  28FD               	goto	u2913
  2914     00FC  07C5               	addwf	___flmul@prod+3,f
  2915     00FD                     u2913:
  2916     00FD  0830               	movf	___flmul@b+2,w
  2917     00FE  00A0               	movwf	__Umul8_16@multiplicand
  2918     00FF  0832               	movf	___flmul@a,w
  2919     0100  120A  158A  25A7  120A  118A  	fcall	__Umul8_16
  2920     0105  1283               	bcf	3,5	;RP0=0, select bank0
  2921     0106  1303               	bcf	3,6	;RP1=0, select bank0
  2922     0107  0821               	movf	?__Umul8_16+1,w
  2923     0108  00C7               	movwf	___flmul@temp+1
  2924     0109  0820               	movf	?__Umul8_16,w
  2925     010A  00C6               	movwf	___flmul@temp
  2926     010B                     l2165:
  2927     010B  0846               	movf	___flmul@temp,w
  2928     010C  00B6               	movwf	??___flmul
  2929     010D  01B7               	clrf	??___flmul+1
  2930     010E  01B8               	clrf	??___flmul+2
  2931     010F  01B9               	clrf	??___flmul+3
  2932     0110  0836               	movf	??___flmul,w
  2933     0111  07BD               	addwf	___flmul@grs,f
  2934     0112  0837               	movf	??___flmul+1,w
  2935     0113  1103               	clrz
  2936     0114  1803               	skipnc
  2937     0115  3E01               	addlw	1
  2938     0116  1903               	skipnz
  2939     0117  2919               	goto	u2921
  2940     0118  07BE               	addwf	___flmul@grs+1,f
  2941     0119                     u2921:
  2942     0119  0838               	movf	??___flmul+2,w
  2943     011A  1103               	clrz
  2944     011B  1803               	skipnc
  2945     011C  3E01               	addlw	1
  2946     011D  1903               	skipnz
  2947     011E  2920               	goto	u2922
  2948     011F  07BF               	addwf	___flmul@grs+2,f
  2949     0120                     u2922:
  2950     0120  0839               	movf	??___flmul+3,w
  2951     0121  1103               	clrz
  2952     0122  1803               	skipnc
  2953     0123  3E01               	addlw	1
  2954     0124  1903               	skipnz
  2955     0125  2927               	goto	u2923
  2956     0126  07C0               	addwf	___flmul@grs+3,f
  2957     0127                     u2923:
  2958     0127                     l2167:
  2959     0127  0847               	movf	___flmul@temp+1,w
  2960     0128  00B6               	movwf	??___flmul
  2961     0129  01B7               	clrf	??___flmul+1
  2962     012A  01B8               	clrf	??___flmul+2
  2963     012B  01B9               	clrf	??___flmul+3
  2964     012C  0836               	movf	??___flmul,w
  2965     012D  07C2               	addwf	___flmul@prod,f
  2966     012E  0837               	movf	??___flmul+1,w
  2967     012F  1103               	clrz
  2968     0130  1803               	skipnc
  2969     0131  3E01               	addlw	1
  2970     0132  1903               	skipnz
  2971     0133  2935               	goto	u2931
  2972     0134  07C3               	addwf	___flmul@prod+1,f
  2973     0135                     u2931:
  2974     0135  0838               	movf	??___flmul+2,w
  2975     0136  1103               	clrz
  2976     0137  1803               	skipnc
  2977     0138  3E01               	addlw	1
  2978     0139  1903               	skipnz
  2979     013A  293C               	goto	u2932
  2980     013B  07C4               	addwf	___flmul@prod+2,f
  2981     013C                     u2932:
  2982     013C  0839               	movf	??___flmul+3,w
  2983     013D  1103               	clrz
  2984     013E  1803               	skipnc
  2985     013F  3E01               	addlw	1
  2986     0140  1903               	skipnz
  2987     0141  2943               	goto	u2933
  2988     0142  07C5               	addwf	___flmul@prod+3,f
  2989     0143                     u2933:
  2990     0143                     l2169:
  2991     0143  3008               	movlw	8
  2992     0144  00B6               	movwf	??___flmul
  2993     0145                     u2945:
  2994     0145  1003               	clrc
  2995     0146  0DBD               	rlf	___flmul@grs,f
  2996     0147  0DBE               	rlf	___flmul@grs+1,f
  2997     0148  0DBF               	rlf	___flmul@grs+2,f
  2998     0149  0DC0               	rlf	___flmul@grs+3,f
  2999     014A  0BB6               	decfsz	??___flmul,f
  3000     014B  2945               	goto	u2945
  3001     014C                     l2171:
  3002     014C  082F               	movf	___flmul@b+1,w
  3003     014D  00A0               	movwf	__Umul8_16@multiplicand
  3004     014E  0832               	movf	___flmul@a,w
  3005     014F  120A  158A  25A7  120A  118A  	fcall	__Umul8_16
  3006     0154  1283               	bcf	3,5	;RP0=0, select bank0
  3007     0155  1303               	bcf	3,6	;RP1=0, select bank0
  3008     0156  0821               	movf	?__Umul8_16+1,w
  3009     0157  00C7               	movwf	___flmul@temp+1
  3010     0158  0820               	movf	?__Umul8_16,w
  3011     0159  00C6               	movwf	___flmul@temp
  3012     015A                     l2173:
  3013     015A  0846               	movf	___flmul@temp,w
  3014     015B  00B6               	movwf	??___flmul
  3015     015C  0847               	movf	___flmul@temp+1,w
  3016     015D  00B7               	movwf	??___flmul+1
  3017     015E  01B8               	clrf	??___flmul+2
  3018     015F  01B9               	clrf	??___flmul+3
  3019     0160  0836               	movf	??___flmul,w
  3020     0161  07BD               	addwf	___flmul@grs,f
  3021     0162  0837               	movf	??___flmul+1,w
  3022     0163  1103               	clrz
  3023     0164  1803               	skipnc
  3024     0165  3E01               	addlw	1
  3025     0166  1903               	skipnz
  3026     0167  2969               	goto	u2951
  3027     0168  07BE               	addwf	___flmul@grs+1,f
  3028     0169                     u2951:
  3029     0169  0838               	movf	??___flmul+2,w
  3030     016A  1103               	clrz
  3031     016B  1803               	skipnc
  3032     016C  3E01               	addlw	1
  3033     016D  1903               	skipnz
  3034     016E  2970               	goto	u2952
  3035     016F  07BF               	addwf	___flmul@grs+2,f
  3036     0170                     u2952:
  3037     0170  0839               	movf	??___flmul+3,w
  3038     0171  1103               	clrz
  3039     0172  1803               	skipnc
  3040     0173  3E01               	addlw	1
  3041     0174  1903               	skipnz
  3042     0175  2977               	goto	u2953
  3043     0176  07C0               	addwf	___flmul@grs+3,f
  3044     0177                     u2953:
  3045     0177                     l2175:
  3046     0177  082E               	movf	___flmul@b,w
  3047     0178  00A0               	movwf	__Umul8_16@multiplicand
  3048     0179  0833               	movf	___flmul@a+1,w
  3049     017A  120A  158A  25A7  120A  118A  	fcall	__Umul8_16
  3050     017F  1283               	bcf	3,5	;RP0=0, select bank0
  3051     0180  1303               	bcf	3,6	;RP1=0, select bank0
  3052     0181  0821               	movf	?__Umul8_16+1,w
  3053     0182  00C7               	movwf	___flmul@temp+1
  3054     0183  0820               	movf	?__Umul8_16,w
  3055     0184  00C6               	movwf	___flmul@temp
  3056     0185                     l2177:
  3057     0185  0846               	movf	___flmul@temp,w
  3058     0186  00B6               	movwf	??___flmul
  3059     0187  0847               	movf	___flmul@temp+1,w
  3060     0188  00B7               	movwf	??___flmul+1
  3061     0189  01B8               	clrf	??___flmul+2
  3062     018A  01B9               	clrf	??___flmul+3
  3063     018B  0836               	movf	??___flmul,w
  3064     018C  07BD               	addwf	___flmul@grs,f
  3065     018D  0837               	movf	??___flmul+1,w
  3066     018E  1103               	clrz
  3067     018F  1803               	skipnc
  3068     0190  3E01               	addlw	1
  3069     0191  1903               	skipnz
  3070     0192  2994               	goto	u2961
  3071     0193  07BE               	addwf	___flmul@grs+1,f
  3072     0194                     u2961:
  3073     0194  0838               	movf	??___flmul+2,w
  3074     0195  1103               	clrz
  3075     0196  1803               	skipnc
  3076     0197  3E01               	addlw	1
  3077     0198  1903               	skipnz
  3078     0199  299B               	goto	u2962
  3079     019A  07BF               	addwf	___flmul@grs+2,f
  3080     019B                     u2962:
  3081     019B  0839               	movf	??___flmul+3,w
  3082     019C  1103               	clrz
  3083     019D  1803               	skipnc
  3084     019E  3E01               	addlw	1
  3085     019F  1903               	skipnz
  3086     01A0  29A2               	goto	u2963
  3087     01A1  07C0               	addwf	___flmul@grs+3,f
  3088     01A2                     u2963:
  3089     01A2                     l2179:
  3090     01A2  3008               	movlw	8
  3091     01A3  00B6               	movwf	??___flmul
  3092     01A4                     u2975:
  3093     01A4  1003               	clrc
  3094     01A5  0DBD               	rlf	___flmul@grs,f
  3095     01A6  0DBE               	rlf	___flmul@grs+1,f
  3096     01A7  0DBF               	rlf	___flmul@grs+2,f
  3097     01A8  0DC0               	rlf	___flmul@grs+3,f
  3098     01A9  0BB6               	decfsz	??___flmul,f
  3099     01AA  29A4               	goto	u2975
  3100     01AB  082E               	movf	___flmul@b,w
  3101     01AC  00A0               	movwf	__Umul8_16@multiplicand
  3102     01AD  0832               	movf	___flmul@a,w
  3103     01AE  120A  158A  25A7  120A  118A  	fcall	__Umul8_16
  3104     01B3  1283               	bcf	3,5	;RP0=0, select bank0
  3105     01B4  1303               	bcf	3,6	;RP1=0, select bank0
  3106     01B5  0821               	movf	?__Umul8_16+1,w
  3107     01B6  00C7               	movwf	___flmul@temp+1
  3108     01B7  0820               	movf	?__Umul8_16,w
  3109     01B8  00C6               	movwf	___flmul@temp
  3110     01B9                     l2181:
  3111     01B9  0846               	movf	___flmul@temp,w
  3112     01BA  00B6               	movwf	??___flmul
  3113     01BB  0847               	movf	___flmul@temp+1,w
  3114     01BC  00B7               	movwf	??___flmul+1
  3115     01BD  01B8               	clrf	??___flmul+2
  3116     01BE  01B9               	clrf	??___flmul+3
  3117     01BF  0836               	movf	??___flmul,w
  3118     01C0  07BD               	addwf	___flmul@grs,f
  3119     01C1  0837               	movf	??___flmul+1,w
  3120     01C2  1103               	clrz
  3121     01C3  1803               	skipnc
  3122     01C4  3E01               	addlw	1
  3123     01C5  1903               	skipnz
  3124     01C6  29C8               	goto	u2981
  3125     01C7  07BE               	addwf	___flmul@grs+1,f
  3126     01C8                     u2981:
  3127     01C8  0838               	movf	??___flmul+2,w
  3128     01C9  1103               	clrz
  3129     01CA  1803               	skipnc
  3130     01CB  3E01               	addlw	1
  3131     01CC  1903               	skipnz
  3132     01CD  29CF               	goto	u2982
  3133     01CE  07BF               	addwf	___flmul@grs+2,f
  3134     01CF                     u2982:
  3135     01CF  0839               	movf	??___flmul+3,w
  3136     01D0  1103               	clrz
  3137     01D1  1803               	skipnc
  3138     01D2  3E01               	addlw	1
  3139     01D3  1903               	skipnz
  3140     01D4  29D6               	goto	u2983
  3141     01D5  07C0               	addwf	___flmul@grs+3,f
  3142     01D6                     u2983:
  3143     01D6                     l2183:
  3144     01D6  082F               	movf	___flmul@b+1,w
  3145     01D7  00A0               	movwf	__Umul8_16@multiplicand
  3146     01D8  0834               	movf	___flmul@a+2,w
  3147     01D9  120A  158A  25A7  120A  118A  	fcall	__Umul8_16
  3148     01DE  1283               	bcf	3,5	;RP0=0, select bank0
  3149     01DF  1303               	bcf	3,6	;RP1=0, select bank0
  3150     01E0  0821               	movf	?__Umul8_16+1,w
  3151     01E1  00C7               	movwf	___flmul@temp+1
  3152     01E2  0820               	movf	?__Umul8_16,w
  3153     01E3  00C6               	movwf	___flmul@temp
  3154     01E4  0846               	movf	___flmul@temp,w
  3155     01E5  00B6               	movwf	??___flmul
  3156     01E6  0847               	movf	___flmul@temp+1,w
  3157     01E7  00B7               	movwf	??___flmul+1
  3158     01E8  01B8               	clrf	??___flmul+2
  3159     01E9  01B9               	clrf	??___flmul+3
  3160     01EA  0836               	movf	??___flmul,w
  3161     01EB  07C2               	addwf	___flmul@prod,f
  3162     01EC  0837               	movf	??___flmul+1,w
  3163     01ED  1103               	clrz
  3164     01EE  1803               	skipnc
  3165     01EF  3E01               	addlw	1
  3166     01F0  1903               	skipnz
  3167     01F1  29F3               	goto	u2991
  3168     01F2  07C3               	addwf	___flmul@prod+1,f
  3169     01F3                     u2991:
  3170     01F3  0838               	movf	??___flmul+2,w
  3171     01F4  1103               	clrz
  3172     01F5  1803               	skipnc
  3173     01F6  3E01               	addlw	1
  3174     01F7  1903               	skipnz
  3175     01F8  29FA               	goto	u2992
  3176     01F9  07C4               	addwf	___flmul@prod+2,f
  3177     01FA                     u2992:
  3178     01FA  0839               	movf	??___flmul+3,w
  3179     01FB  1103               	clrz
  3180     01FC  1803               	skipnc
  3181     01FD  3E01               	addlw	1
  3182     01FE  1903               	skipnz
  3183     01FF  2A01               	goto	u2993
  3184     0200  07C5               	addwf	___flmul@prod+3,f
  3185     0201                     u2993:
  3186     0201                     l2185:
  3187     0201  0830               	movf	___flmul@b+2,w
  3188     0202  00A0               	movwf	__Umul8_16@multiplicand
  3189     0203  0833               	movf	___flmul@a+1,w
  3190     0204  120A  158A  25A7  120A  118A  	fcall	__Umul8_16
  3191     0209  1283               	bcf	3,5	;RP0=0, select bank0
  3192     020A  1303               	bcf	3,6	;RP1=0, select bank0
  3193     020B  0821               	movf	?__Umul8_16+1,w
  3194     020C  00C7               	movwf	___flmul@temp+1
  3195     020D  0820               	movf	?__Umul8_16,w
  3196     020E  00C6               	movwf	___flmul@temp
  3197     020F                     l2187:
  3198     020F  0846               	movf	___flmul@temp,w
  3199     0210  00B6               	movwf	??___flmul
  3200     0211  0847               	movf	___flmul@temp+1,w
  3201     0212  00B7               	movwf	??___flmul+1
  3202     0213  01B8               	clrf	??___flmul+2
  3203     0214  01B9               	clrf	??___flmul+3
  3204     0215  0836               	movf	??___flmul,w
  3205     0216  07C2               	addwf	___flmul@prod,f
  3206     0217  0837               	movf	??___flmul+1,w
  3207     0218  1103               	clrz
  3208     0219  1803               	skipnc
  3209     021A  3E01               	addlw	1
  3210     021B  1903               	skipnz
  3211     021C  2A1E               	goto	u3001
  3212     021D  07C3               	addwf	___flmul@prod+1,f
  3213     021E                     u3001:
  3214     021E  0838               	movf	??___flmul+2,w
  3215     021F  1103               	clrz
  3216     0220  1803               	skipnc
  3217     0221  3E01               	addlw	1
  3218     0222  1903               	skipnz
  3219     0223  2A25               	goto	u3002
  3220     0224  07C4               	addwf	___flmul@prod+2,f
  3221     0225                     u3002:
  3222     0225  0839               	movf	??___flmul+3,w
  3223     0226  1103               	clrz
  3224     0227  1803               	skipnc
  3225     0228  3E01               	addlw	1
  3226     0229  1903               	skipnz
  3227     022A  2A2C               	goto	u3003
  3228     022B  07C5               	addwf	___flmul@prod+3,f
  3229     022C                     u3003:
  3230     022C  0830               	movf	___flmul@b+2,w
  3231     022D  00A0               	movwf	__Umul8_16@multiplicand
  3232     022E  0834               	movf	___flmul@a+2,w
  3233     022F  120A  158A  25A7  120A  118A  	fcall	__Umul8_16
  3234     0234  1283               	bcf	3,5	;RP0=0, select bank0
  3235     0235  1303               	bcf	3,6	;RP1=0, select bank0
  3236     0236  0821               	movf	?__Umul8_16+1,w
  3237     0237  00C7               	movwf	___flmul@temp+1
  3238     0238  0820               	movf	?__Umul8_16,w
  3239     0239  00C6               	movwf	___flmul@temp
  3240     023A                     l2189:
  3241     023A  0846               	movf	___flmul@temp,w
  3242     023B  00B6               	movwf	??___flmul
  3243     023C  0847               	movf	___flmul@temp+1,w
  3244     023D  00B7               	movwf	??___flmul+1
  3245     023E  01B8               	clrf	??___flmul+2
  3246     023F  01B9               	clrf	??___flmul+3
  3247     0240  3008               	movlw	8
  3248     0241                     u3015:
  3249     0241  1003               	clrc
  3250     0242  0DB6               	rlf	??___flmul,f
  3251     0243  0DB7               	rlf	??___flmul+1,f
  3252     0244  0DB8               	rlf	??___flmul+2,f
  3253     0245  0DB9               	rlf	??___flmul+3,f
  3254     0246                     u3010:
  3255     0246  3EFF               	addlw	-1
  3256     0247  1D03               	skipz
  3257     0248  2A41               	goto	u3015
  3258     0249  0836               	movf	??___flmul,w
  3259     024A  07C2               	addwf	___flmul@prod,f
  3260     024B  0837               	movf	??___flmul+1,w
  3261     024C  1103               	clrz
  3262     024D  1803               	skipnc
  3263     024E  3E01               	addlw	1
  3264     024F  1903               	skipnz
  3265     0250  2A52               	goto	u3021
  3266     0251  07C3               	addwf	___flmul@prod+1,f
  3267     0252                     u3021:
  3268     0252  0838               	movf	??___flmul+2,w
  3269     0253  1103               	clrz
  3270     0254  1803               	skipnc
  3271     0255  3E01               	addlw	1
  3272     0256  1903               	skipnz
  3273     0257  2A59               	goto	u3022
  3274     0258  07C4               	addwf	___flmul@prod+2,f
  3275     0259                     u3022:
  3276     0259  0839               	movf	??___flmul+3,w
  3277     025A  1103               	clrz
  3278     025B  1803               	skipnc
  3279     025C  3E01               	addlw	1
  3280     025D  1903               	skipnz
  3281     025E  2A60               	goto	u3023
  3282     025F  07C5               	addwf	___flmul@prod+3,f
  3283     0260                     u3023:
  3284     0260                     l2191:
  3285     0260  083D               	movf	___flmul@grs,w
  3286     0261  00B6               	movwf	??___flmul
  3287     0262  083E               	movf	___flmul@grs+1,w
  3288     0263  00B7               	movwf	??___flmul+1
  3289     0264  083F               	movf	___flmul@grs+2,w
  3290     0265  00B8               	movwf	??___flmul+2
  3291     0266  0840               	movf	___flmul@grs+3,w
  3292     0267  00B9               	movwf	??___flmul+3
  3293     0268  3018               	movlw	24
  3294     0269                     u3035:
  3295     0269  1003               	clrc
  3296     026A  0CB9               	rrf	??___flmul+3,f
  3297     026B  0CB8               	rrf	??___flmul+2,f
  3298     026C  0CB7               	rrf	??___flmul+1,f
  3299     026D  0CB6               	rrf	??___flmul,f
  3300     026E                     u3030:
  3301     026E  3EFF               	addlw	-1
  3302     026F  1D03               	skipz
  3303     0270  2A69               	goto	u3035
  3304     0271  0836               	movf	??___flmul,w
  3305     0272  07C2               	addwf	___flmul@prod,f
  3306     0273  0837               	movf	??___flmul+1,w
  3307     0274  1103               	clrz
  3308     0275  1803               	skipnc
  3309     0276  3E01               	addlw	1
  3310     0277  1903               	skipnz
  3311     0278  2A7A               	goto	u3041
  3312     0279  07C3               	addwf	___flmul@prod+1,f
  3313     027A                     u3041:
  3314     027A  0838               	movf	??___flmul+2,w
  3315     027B  1103               	clrz
  3316     027C  1803               	skipnc
  3317     027D  3E01               	addlw	1
  3318     027E  1903               	skipnz
  3319     027F  2A81               	goto	u3042
  3320     0280  07C4               	addwf	___flmul@prod+2,f
  3321     0281                     u3042:
  3322     0281  0839               	movf	??___flmul+3,w
  3323     0282  1103               	clrz
  3324     0283  1803               	skipnc
  3325     0284  3E01               	addlw	1
  3326     0285  1903               	skipnz
  3327     0286  2A88               	goto	u3043
  3328     0287  07C5               	addwf	___flmul@prod+3,f
  3329     0288                     u3043:
  3330     0288                     l2193:
  3331     0288  3008               	movlw	8
  3332     0289  00B6               	movwf	??___flmul
  3333     028A                     u3055:
  3334     028A  1003               	clrc
  3335     028B  0DBD               	rlf	___flmul@grs,f
  3336     028C  0DBE               	rlf	___flmul@grs+1,f
  3337     028D  0DBF               	rlf	___flmul@grs+2,f
  3338     028E  0DC0               	rlf	___flmul@grs+3,f
  3339     028F  0BB6               	decfsz	??___flmul,f
  3340     0290  2A8A               	goto	u3055
  3341     0291                     l2195:
  3342     0291  0841               	movf	___flmul@bexp,w
  3343     0292  073C               	addwf	___flmul@aexp,w
  3344     0293  00B6               	movwf	??___flmul
  3345     0294  01B7               	clrf	??___flmul+1
  3346     0295  0DB7               	rlf	??___flmul+1,f
  3347     0296  0836               	movf	??___flmul,w
  3348     0297  3E82               	addlw	130
  3349     0298  00C6               	movwf	___flmul@temp
  3350     0299  0837               	movf	??___flmul+1,w
  3351     029A  1803               	skipnc
  3352     029B  3E01               	addlw	1
  3353     029C  3EFF               	addlw	255
  3354     029D  00C7               	movwf	___flmul@temp+1
  3355     029E  2ABC               	goto	l2207
  3356     029F                     l2197:
  3357     029F  3001               	movlw	1
  3358     02A0  00B6               	movwf	??___flmul
  3359     02A1                     u3065:
  3360     02A1  1003               	clrc
  3361     02A2  0DC2               	rlf	___flmul@prod,f
  3362     02A3  0DC3               	rlf	___flmul@prod+1,f
  3363     02A4  0DC4               	rlf	___flmul@prod+2,f
  3364     02A5  0DC5               	rlf	___flmul@prod+3,f
  3365     02A6  0BB6               	decfsz	??___flmul,f
  3366     02A7  2AA1               	goto	u3065
  3367     02A8                     l2199:
  3368     02A8  1FC0               	btfss	___flmul@grs+3,7
  3369     02A9  2AAB               	goto	u3071
  3370     02AA  2AAC               	goto	u3070
  3371     02AB                     u3071:
  3372     02AB  2AAD               	goto	l2203
  3373     02AC                     u3070:
  3374     02AC                     l2201:
  3375     02AC  1442               	bsf	___flmul@prod,0
  3376     02AD                     l2203:
  3377     02AD  3001               	movlw	1
  3378     02AE  00B6               	movwf	??___flmul
  3379     02AF                     u3085:
  3380     02AF  1003               	clrc
  3381     02B0  0DBD               	rlf	___flmul@grs,f
  3382     02B1  0DBE               	rlf	___flmul@grs+1,f
  3383     02B2  0DBF               	rlf	___flmul@grs+2,f
  3384     02B3  0DC0               	rlf	___flmul@grs+3,f
  3385     02B4  0BB6               	decfsz	??___flmul,f
  3386     02B5  2AAF               	goto	u3085
  3387     02B6                     l2205:
  3388     02B6  30FF               	movlw	255
  3389     02B7  07C6               	addwf	___flmul@temp,f
  3390     02B8  1803               	skipnc
  3391     02B9  0AC7               	incf	___flmul@temp+1,f
  3392     02BA  30FF               	movlw	255
  3393     02BB  07C7               	addwf	___flmul@temp+1,f
  3394     02BC                     l2207:
  3395     02BC  1FC4               	btfss	___flmul@prod+2,7
  3396     02BD  2ABF               	goto	u3091
  3397     02BE  2AC0               	goto	u3090
  3398     02BF                     u3091:
  3399     02BF  2A9F               	goto	l2197
  3400     02C0                     u3090:
  3401     02C0                     l2209:
  3402     02C0  01BC               	clrf	___flmul@aexp
  3403     02C1                     l2211:
  3404     02C1  1FC0               	btfss	___flmul@grs+3,7
  3405     02C2  2AC4               	goto	u3101
  3406     02C3  2AC5               	goto	u3100
  3407     02C4                     u3101:
  3408     02C4  2AE1               	goto	l2219
  3409     02C5                     u3100:
  3410     02C5                     l2213:
  3411     02C5  30FF               	movlw	255
  3412     02C6  053D               	andwf	___flmul@grs,w
  3413     02C7  00B6               	movwf	??___flmul
  3414     02C8  30FF               	movlw	255
  3415     02C9  053E               	andwf	___flmul@grs+1,w
  3416     02CA  00B7               	movwf	??___flmul+1
  3417     02CB  30FF               	movlw	255
  3418     02CC  053F               	andwf	___flmul@grs+2,w
  3419     02CD  00B8               	movwf	??___flmul+2
  3420     02CE  307F               	movlw	127
  3421     02CF  0540               	andwf	___flmul@grs+3,w
  3422     02D0  00B9               	movwf	??___flmul+3
  3423     02D1  0839               	movf	??___flmul+3,w
  3424     02D2  0438               	iorwf	??___flmul+2,w
  3425     02D3  0437               	iorwf	??___flmul+1,w
  3426     02D4  0436               	iorwf	??___flmul,w
  3427     02D5  1903               	skipnz
  3428     02D6  2AD8               	goto	u3111
  3429     02D7  2AD9               	goto	u3110
  3430     02D8                     u3111:
  3431     02D8  2ADC               	goto	l636
  3432     02D9                     u3110:
  3433     02D9                     l2215:
  3434     02D9  01BC               	clrf	___flmul@aexp
  3435     02DA  0ABC               	incf	___flmul@aexp,f
  3436     02DB  2AE1               	goto	l2219
  3437     02DC                     l636:
  3438     02DC  1C42               	btfss	___flmul@prod,0
  3439     02DD  2ADF               	goto	u3121
  3440     02DE  2AE0               	goto	u3120
  3441     02DF                     u3121:
  3442     02DF  2AE1               	goto	l2219
  3443     02E0                     u3120:
  3444     02E0  2AD9               	goto	l2215
  3445     02E1                     l2219:
  3446     02E1  083C               	movf	___flmul@aexp,w
  3447     02E2  1903               	btfsc	3,2
  3448     02E3  2AE5               	goto	u3131
  3449     02E4  2AE6               	goto	u3130
  3450     02E5                     u3131:
  3451     02E5  2B17               	goto	l2229
  3452     02E6                     u3130:
  3453     02E6                     l2221:
  3454     02E6  3001               	movlw	1
  3455     02E7  07C2               	addwf	___flmul@prod,f
  3456     02E8  3000               	movlw	0
  3457     02E9  1803               	skipnc
  3458     02EA  3001               	movlw	1
  3459     02EB  07C3               	addwf	___flmul@prod+1,f
  3460     02EC  3000               	movlw	0
  3461     02ED  1803               	skipnc
  3462     02EE  3001               	movlw	1
  3463     02EF  07C4               	addwf	___flmul@prod+2,f
  3464     02F0  3000               	movlw	0
  3465     02F1  1803               	skipnc
  3466     02F2  3001               	movlw	1
  3467     02F3  07C5               	addwf	___flmul@prod+3,f
  3468     02F4                     l2223:
  3469     02F4  1C45               	btfss	___flmul@prod+3,0
  3470     02F5  2AF7               	goto	u3141
  3471     02F6  2AF8               	goto	u3140
  3472     02F7                     u3141:
  3473     02F7  2B17               	goto	l2229
  3474     02F8                     u3140:
  3475     02F8                     l2225:
  3476     02F8  0842               	movf	___flmul@prod,w
  3477     02F9  00B6               	movwf	??___flmul
  3478     02FA  0843               	movf	___flmul@prod+1,w
  3479     02FB  00B7               	movwf	??___flmul+1
  3480     02FC  0844               	movf	___flmul@prod+2,w
  3481     02FD  00B8               	movwf	??___flmul+2
  3482     02FE  0845               	movf	___flmul@prod+3,w
  3483     02FF  00B9               	movwf	??___flmul+3
  3484     0300  3001               	movlw	1
  3485     0301  00BA               	movwf	??___flmul+4
  3486     0302                     u3155:
  3487     0302  0D39               	rlf	??___flmul+3,w
  3488     0303  0CB9               	rrf	??___flmul+3,f
  3489     0304  0CB8               	rrf	??___flmul+2,f
  3490     0305  0CB7               	rrf	??___flmul+1,f
  3491     0306  0CB6               	rrf	??___flmul,f
  3492     0307                     u3150:
  3493     0307  0BBA               	decfsz	??___flmul+4,f
  3494     0308  2B02               	goto	u3155
  3495     0309  0839               	movf	??___flmul+3,w
  3496     030A  00C5               	movwf	___flmul@prod+3
  3497     030B  0838               	movf	??___flmul+2,w
  3498     030C  00C4               	movwf	___flmul@prod+2
  3499     030D  0837               	movf	??___flmul+1,w
  3500     030E  00C3               	movwf	___flmul@prod+1
  3501     030F  0836               	movf	??___flmul,w
  3502     0310  00C2               	movwf	___flmul@prod
  3503     0311                     l2227:
  3504     0311  3001               	movlw	1
  3505     0312  07C6               	addwf	___flmul@temp,f
  3506     0313  1803               	skipnc
  3507     0314  0AC7               	incf	___flmul@temp+1,f
  3508     0315  3000               	movlw	0
  3509     0316  07C7               	addwf	___flmul@temp+1,f
  3510     0317                     l2229:
  3511     0317  0847               	movf	___flmul@temp+1,w
  3512     0318  3A80               	xorlw	128
  3513     0319  00FF               	movwf	btemp+1
  3514     031A  3080               	movlw	128
  3515     031B  027F               	subwf	btemp+1,w
  3516     031C  1D03               	skipz
  3517     031D  2B20               	goto	u3165
  3518     031E  30FF               	movlw	255
  3519     031F  0246               	subwf	___flmul@temp,w
  3520     0320                     u3165:
  3521     0320  1C03               	skipc
  3522     0321  2B23               	goto	u3161
  3523     0322  2B24               	goto	u3160
  3524     0323                     u3161:
  3525     0323  2B2F               	goto	l2233
  3526     0324                     u3160:
  3527     0324                     l2231:
  3528     0324  307F               	movlw	127
  3529     0325  1283               	bcf	3,5	;RP0=0, select bank0
  3530     0326  1303               	bcf	3,6	;RP1=0, select bank0
  3531     0327  00C5               	movwf	___flmul@prod+3
  3532     0328  3080               	movlw	128
  3533     0329  00C4               	movwf	___flmul@prod+2
  3534     032A  3000               	movlw	0
  3535     032B  00C3               	movwf	___flmul@prod+1
  3536     032C  3000               	movlw	0
  3537     032D  00C2               	movwf	___flmul@prod
  3538     032E  2B60               	goto	l642
  3539     032F                     l2233:
  3540     032F  1283               	bcf	3,5	;RP0=0, select bank0
  3541     0330  1303               	bcf	3,6	;RP1=0, select bank0
  3542     0331  0847               	movf	___flmul@temp+1,w
  3543     0332  3A80               	xorlw	128
  3544     0333  00FF               	movwf	btemp+1
  3545     0334  3080               	movlw	128
  3546     0335  027F               	subwf	btemp+1,w
  3547     0336  1D03               	skipz
  3548     0337  2B3A               	goto	u3175
  3549     0338  3001               	movlw	1
  3550     0339  0246               	subwf	___flmul@temp,w
  3551     033A                     u3175:
  3552     033A  1803               	skipnc
  3553     033B  2B3D               	goto	u3171
  3554     033C  2B3E               	goto	u3170
  3555     033D                     u3171:
  3556     033D  2B4A               	goto	l2239
  3557     033E                     u3170:
  3558     033E                     l2235:
  3559     033E  3000               	movlw	0
  3560     033F  1283               	bcf	3,5	;RP0=0, select bank0
  3561     0340  1303               	bcf	3,6	;RP1=0, select bank0
  3562     0341  00C5               	movwf	___flmul@prod+3
  3563     0342  3000               	movlw	0
  3564     0343  00C4               	movwf	___flmul@prod+2
  3565     0344  3000               	movlw	0
  3566     0345  00C3               	movwf	___flmul@prod+1
  3567     0346  3000               	movlw	0
  3568     0347  00C2               	movwf	___flmul@prod
  3569     0348                     l2237:
  3570     0348  01BB               	clrf	___flmul@sign
  3571     0349  2B60               	goto	l642
  3572     034A                     l2239:
  3573     034A  1283               	bcf	3,5	;RP0=0, select bank0
  3574     034B  1303               	bcf	3,6	;RP1=0, select bank0
  3575     034C  0846               	movf	___flmul@temp,w
  3576     034D  00C1               	movwf	___flmul@bexp
  3577     034E  30FF               	movlw	255
  3578     034F  05C2               	andwf	___flmul@prod,f
  3579     0350  30FF               	movlw	255
  3580     0351  05C3               	andwf	___flmul@prod+1,f
  3581     0352  307F               	movlw	127
  3582     0353  05C4               	andwf	___flmul@prod+2,f
  3583     0354  3000               	movlw	0
  3584     0355  05C5               	andwf	___flmul@prod+3,f
  3585     0356                     l2241:
  3586     0356  1C41               	btfss	___flmul@bexp,0
  3587     0357  2B59               	goto	u3181
  3588     0358  2B5A               	goto	u3180
  3589     0359                     u3181:
  3590     0359  2B5B               	goto	l2245
  3591     035A                     u3180:
  3592     035A                     l2243:
  3593     035A  17C4               	bsf	___flmul@prod+2,7
  3594     035B                     l2245:
  3595     035B  0841               	movf	___flmul@bexp,w
  3596     035C  00B6               	movwf	??___flmul
  3597     035D  1003               	clrc
  3598     035E  0C36               	rrf	??___flmul,w
  3599     035F  00C5               	movwf	___flmul@prod+3
  3600     0360                     l642:
  3601     0360  083B               	movf	___flmul@sign,w
  3602     0361  00B6               	movwf	??___flmul
  3603     0362  0836               	movf	??___flmul,w
  3604     0363  04C5               	iorwf	___flmul@prod+3,f
  3605     0364                     l2247:
  3606     0364  0845               	movf	___flmul@prod+3,w
  3607     0365  00B1               	movwf	?___flmul+3
  3608     0366  0844               	movf	___flmul@prod+2,w
  3609     0367  00B0               	movwf	?___flmul+2
  3610     0368  0843               	movf	___flmul@prod+1,w
  3611     0369  00AF               	movwf	?___flmul+1
  3612     036A  0842               	movf	___flmul@prod,w
  3613     036B  00AE               	movwf	?___flmul
  3614     036C                     l630:
  3615     036C  0008               	return
  3616     036D                     __end_of___flmul:
  3617                           
  3618                           	psect	text12
  3619     0DA7                     __ptext12:	
  3620 ;; *************** function __Umul8_16 *****************
  3621 ;; Defined at:
  3622 ;;		line 4 in file "C:\Program Files\Microchip\xc8\v2.40\pic\sources\c90\common\Umul8_16.c"
  3623 ;; Parameters:    Size  Location     Type
  3624 ;;  multiplier      1    wreg     unsigned char 
  3625 ;;  multiplicand    1    0[BANK0 ] unsigned char 
  3626 ;; Auto vars:     Size  Location     Type
  3627 ;;  multiplier      1    8[BANK0 ] unsigned char 
  3628 ;;  word_mpld       2    6[BANK0 ] unsigned int 
  3629 ;;  product         2    4[BANK0 ] unsigned int 
  3630 ;; Return value:  Size  Location     Type
  3631 ;;                  2    0[BANK0 ] unsigned int 
  3632 ;; Registers used:
  3633 ;;		wreg, status,2, status,0
  3634 ;; Tracked objects:
  3635 ;;		On entry : 0/0
  3636 ;;		On exit  : 0/0
  3637 ;;		Unchanged: 0/0
  3638 ;; Data sizes:     COMMON   BANK0   BANK1   BANK3   BANK2
  3639 ;;      Params:         0       2       0       0       0
  3640 ;;      Locals:         0       5       0       0       0
  3641 ;;      Temps:          0       2       0       0       0
  3642 ;;      Totals:         0       9       0       0       0
  3643 ;;Total ram usage:        9 bytes
  3644 ;; Hardware stack levels used: 1
  3645 ;; Hardware stack levels required when called: 2
  3646 ;; This function calls:
  3647 ;;		Nothing
  3648 ;; This function is called by:
  3649 ;;		___flmul
  3650 ;; This function uses a non-reentrant model
  3651 ;;
  3652                           
  3653     0DA7                     __Umul8_16:	
  3654                           ;psect for function __Umul8_16
  3655                           
  3656                           
  3657                           ;incstack = 0
  3658                           ; Regs used in __Umul8_16: [wreg+status,2+status,0]
  3659                           ;__Umul8_16@multiplier stored from wreg
  3660     0DA7  1283               	bcf	3,5	;RP0=0, select bank0
  3661     0DA8  1303               	bcf	3,6	;RP1=0, select bank0
  3662     0DA9  00A8               	movwf	__Umul8_16@multiplier
  3663     0DAA                     l2083:
  3664     0DAA  01A4               	clrf	__Umul8_16@product
  3665     0DAB  01A5               	clrf	__Umul8_16@product+1
  3666     0DAC                     l2085:
  3667     0DAC  0820               	movf	__Umul8_16@multiplicand,w
  3668     0DAD  00A2               	movwf	??__Umul8_16
  3669     0DAE  01A3               	clrf	??__Umul8_16+1
  3670     0DAF  0822               	movf	??__Umul8_16,w
  3671     0DB0  00A6               	movwf	__Umul8_16@word_mpld
  3672     0DB1  0823               	movf	??__Umul8_16+1,w
  3673     0DB2  00A7               	movwf	__Umul8_16@word_mpld+1
  3674     0DB3                     l2087:
  3675     0DB3  1C28               	btfss	__Umul8_16@multiplier,0
  3676     0DB4  2DB6               	goto	u2751
  3677     0DB5  2DB7               	goto	u2750
  3678     0DB6                     u2751:
  3679     0DB6  2DBD               	goto	l649
  3680     0DB7                     u2750:
  3681     0DB7                     l2089:
  3682     0DB7  0826               	movf	__Umul8_16@word_mpld,w
  3683     0DB8  07A4               	addwf	__Umul8_16@product,f
  3684     0DB9  1803               	skipnc
  3685     0DBA  0AA5               	incf	__Umul8_16@product+1,f
  3686     0DBB  0827               	movf	__Umul8_16@word_mpld+1,w
  3687     0DBC  07A5               	addwf	__Umul8_16@product+1,f
  3688     0DBD                     l649:
  3689     0DBD  3001               	movlw	1
  3690     0DBE                     u2765:
  3691     0DBE  1003               	clrc
  3692     0DBF  0DA6               	rlf	__Umul8_16@word_mpld,f
  3693     0DC0  0DA7               	rlf	__Umul8_16@word_mpld+1,f
  3694     0DC1  3EFF               	addlw	-1
  3695     0DC2  1D03               	skipz
  3696     0DC3  2DBE               	goto	u2765
  3697     0DC4  1003               	clrc
  3698     0DC5  0CA8               	rrf	__Umul8_16@multiplier,f
  3699     0DC6                     l2091:
  3700     0DC6  0828               	movf	__Umul8_16@multiplier,w
  3701     0DC7  1D03               	btfss	3,2
  3702     0DC8  2DCA               	goto	u2771
  3703     0DC9  2DCB               	goto	u2770
  3704     0DCA                     u2771:
  3705     0DCA  2DB3               	goto	l2087
  3706     0DCB                     u2770:
  3707     0DCB                     l2093:
  3708     0DCB  0825               	movf	__Umul8_16@product+1,w
  3709     0DCC  00A1               	movwf	?__Umul8_16+1
  3710     0DCD  0824               	movf	__Umul8_16@product,w
  3711     0DCE  00A0               	movwf	?__Umul8_16
  3712     0DCF                     l651:
  3713     0DCF  0008               	return
  3714     0DD0                     __end_of__Umul8_16:
  3715                           
  3716                           	psect	text13
  3717     036D                     __ptext13:	
  3718 ;; *************** function ___fladd *****************
  3719 ;; Defined at:
  3720 ;;		line 10 in file "C:\Program Files\Microchip\xc8\v2.40\pic\sources\c90\common\sprcadd.c"
  3721 ;; Parameters:    Size  Location     Type
  3722 ;;  b               4   40[BANK0 ] unsigned int 
  3723 ;;  a               4   44[BANK0 ] unsigned int 
  3724 ;; Auto vars:     Size  Location     Type
  3725 ;;  grs             1   59[BANK0 ] unsigned char 
  3726 ;;  bexp            1   58[BANK0 ] unsigned char 
  3727 ;;  aexp            1   57[BANK0 ] unsigned char 
  3728 ;;  signs           1   56[BANK0 ] unsigned char 
  3729 ;; Return value:  Size  Location     Type
  3730 ;;                  4   40[BANK0 ] unsigned char 
  3731 ;; Registers used:
  3732 ;;		wreg, status,2, status,0, btemp+1
  3733 ;; Tracked objects:
  3734 ;;		On entry : 0/0
  3735 ;;		On exit  : 0/0
  3736 ;;		Unchanged: 0/0
  3737 ;; Data sizes:     COMMON   BANK0   BANK1   BANK3   BANK2
  3738 ;;      Params:         0       8       0       0       0
  3739 ;;      Locals:         0       4       0       0       0
  3740 ;;      Temps:          0       8       0       0       0
  3741 ;;      Totals:         0      20       0       0       0
  3742 ;;Total ram usage:       20 bytes
  3743 ;; Hardware stack levels used: 1
  3744 ;; Hardware stack levels required when called: 2
  3745 ;; This function calls:
  3746 ;;		Nothing
  3747 ;; This function is called by:
  3748 ;;		_conv_s1
  3749 ;;		_conv_s2
  3750 ;; This function uses a non-reentrant model
  3751 ;;
  3752                           
  3753     036D                     ___fladd:	
  3754                           ;psect for function ___fladd
  3755                           
  3756     036D                     l1523:	
  3757                           ;incstack = 0
  3758                           ; Regs used in ___fladd: [wreg+status,2+status,0+btemp+1]
  3759                           
  3760     036D  1283               	bcf	3,5	;RP0=0, select bank0
  3761     036E  1303               	bcf	3,6	;RP1=0, select bank0
  3762     036F  084B               	movf	___fladd@b+3,w
  3763     0370  3980               	andlw	128
  3764     0371  00D8               	movwf	___fladd@signs
  3765     0372                     l1525:
  3766     0372  084B               	movf	___fladd@b+3,w
  3767     0373  00D0               	movwf	??___fladd
  3768     0374  0750               	addwf	??___fladd,w
  3769     0375  00DA               	movwf	___fladd@bexp
  3770     0376                     l1527:
  3771     0376  1FCA               	btfss	___fladd@b+2,7
  3772     0377  2B79               	goto	u1651
  3773     0378  2B7A               	goto	u1650
  3774     0379                     u1651:
  3775     0379  2B7B               	goto	l1531
  3776     037A                     u1650:
  3777     037A                     l1529:
  3778     037A  145A               	bsf	___fladd@bexp,0
  3779     037B                     l1531:
  3780     037B  085A               	movf	___fladd@bexp,w
  3781     037C  1903               	btfsc	3,2
  3782     037D  2B7F               	goto	u1661
  3783     037E  2B80               	goto	u1660
  3784     037F                     u1661:
  3785     037F  2B90               	goto	l1541
  3786     0380                     u1660:
  3787     0380                     l1533:
  3788     0380  0A5A               	incf	___fladd@bexp,w
  3789     0381  1D03               	btfss	3,2
  3790     0382  2B84               	goto	u1671
  3791     0383  2B85               	goto	u1670
  3792     0384                     u1671:
  3793     0384  2B8D               	goto	l1537
  3794     0385                     u1670:
  3795     0385                     l1535:
  3796     0385  3000               	movlw	0
  3797     0386  00CB               	movwf	___fladd@b+3
  3798     0387  3000               	movlw	0
  3799     0388  00CA               	movwf	___fladd@b+2
  3800     0389  3000               	movlw	0
  3801     038A  00C9               	movwf	___fladd@b+1
  3802     038B  3000               	movlw	0
  3803     038C  00C8               	movwf	___fladd@b
  3804     038D                     l1537:
  3805     038D  17CA               	bsf	___fladd@b+2,7
  3806     038E                     l1539:
  3807     038E  01CB               	clrf	___fladd@b+3
  3808     038F  2B98               	goto	l1543
  3809     0390                     l1541:
  3810     0390  3000               	movlw	0
  3811     0391  00CB               	movwf	___fladd@b+3
  3812     0392  3000               	movlw	0
  3813     0393  00CA               	movwf	___fladd@b+2
  3814     0394  3000               	movlw	0
  3815     0395  00C9               	movwf	___fladd@b+1
  3816     0396  3000               	movlw	0
  3817     0397  00C8               	movwf	___fladd@b
  3818     0398                     l1543:
  3819     0398  084F               	movf	___fladd@a+3,w
  3820     0399  3980               	andlw	128
  3821     039A  00D9               	movwf	___fladd@aexp
  3822     039B                     l1545:
  3823     039B  0859               	movf	___fladd@aexp,w
  3824     039C  0658               	xorwf	___fladd@signs,w
  3825     039D  1903               	skipnz
  3826     039E  2BA0               	goto	u1681
  3827     039F  2BA1               	goto	u1680
  3828     03A0                     u1681:
  3829     03A0  2BA2               	goto	l1549
  3830     03A1                     u1680:
  3831     03A1                     l1547:
  3832     03A1  1758               	bsf	___fladd@signs,6
  3833     03A2                     l1549:
  3834     03A2  084F               	movf	___fladd@a+3,w
  3835     03A3  00D0               	movwf	??___fladd
  3836     03A4  0750               	addwf	??___fladd,w
  3837     03A5  00D9               	movwf	___fladd@aexp
  3838     03A6                     l1551:
  3839     03A6  1FCE               	btfss	___fladd@a+2,7
  3840     03A7  2BA9               	goto	u1691
  3841     03A8  2BAA               	goto	u1690
  3842     03A9                     u1691:
  3843     03A9  2BAB               	goto	l1555
  3844     03AA                     u1690:
  3845     03AA                     l1553:
  3846     03AA  1459               	bsf	___fladd@aexp,0
  3847     03AB                     l1555:
  3848     03AB  0859               	movf	___fladd@aexp,w
  3849     03AC  1903               	btfsc	3,2
  3850     03AD  2BAF               	goto	u1701
  3851     03AE  2BB0               	goto	u1700
  3852     03AF                     u1701:
  3853     03AF  2BC0               	goto	l1565
  3854     03B0                     u1700:
  3855     03B0                     l1557:
  3856     03B0  0A59               	incf	___fladd@aexp,w
  3857     03B1  1D03               	btfss	3,2
  3858     03B2  2BB4               	goto	u1711
  3859     03B3  2BB5               	goto	u1710
  3860     03B4                     u1711:
  3861     03B4  2BBD               	goto	l1561
  3862     03B5                     u1710:
  3863     03B5                     l1559:
  3864     03B5  3000               	movlw	0
  3865     03B6  00CF               	movwf	___fladd@a+3
  3866     03B7  3000               	movlw	0
  3867     03B8  00CE               	movwf	___fladd@a+2
  3868     03B9  3000               	movlw	0
  3869     03BA  00CD               	movwf	___fladd@a+1
  3870     03BB  3000               	movlw	0
  3871     03BC  00CC               	movwf	___fladd@a
  3872     03BD                     l1561:
  3873     03BD  17CE               	bsf	___fladd@a+2,7
  3874     03BE                     l1563:
  3875     03BE  01CF               	clrf	___fladd@a+3
  3876     03BF  2BC8               	goto	l534
  3877     03C0                     l1565:
  3878     03C0  3000               	movlw	0
  3879     03C1  00CF               	movwf	___fladd@a+3
  3880     03C2  3000               	movlw	0
  3881     03C3  00CE               	movwf	___fladd@a+2
  3882     03C4  3000               	movlw	0
  3883     03C5  00CD               	movwf	___fladd@a+1
  3884     03C6  3000               	movlw	0
  3885     03C7  00CC               	movwf	___fladd@a
  3886     03C8                     l534:
  3887     03C8  085A               	movf	___fladd@bexp,w
  3888     03C9  0259               	subwf	___fladd@aexp,w
  3889     03CA  1803               	skipnc
  3890     03CB  2BCD               	goto	u1721
  3891     03CC  2BCE               	goto	u1720
  3892     03CD                     u1721:
  3893     03CD  2BF4               	goto	l1601
  3894     03CE                     u1720:
  3895     03CE                     l1567:
  3896     03CE  1F58               	btfss	___fladd@signs,6
  3897     03CF  2BD1               	goto	u1731
  3898     03D0  2BD2               	goto	u1730
  3899     03D1                     u1731:
  3900     03D1  2BD6               	goto	l1571
  3901     03D2                     u1730:
  3902     03D2                     l1569:
  3903     03D2  3080               	movlw	128
  3904     03D3  00D0               	movwf	??___fladd
  3905     03D4  0850               	movf	??___fladd,w
  3906     03D5  06D8               	xorwf	___fladd@signs,f
  3907     03D6                     l1571:
  3908     03D6  085A               	movf	___fladd@bexp,w
  3909     03D7  00DB               	movwf	___fladd@grs
  3910     03D8                     l1573:
  3911     03D8  0859               	movf	___fladd@aexp,w
  3912     03D9  00DA               	movwf	___fladd@bexp
  3913     03DA                     l1575:
  3914     03DA  085B               	movf	___fladd@grs,w
  3915     03DB  00D9               	movwf	___fladd@aexp
  3916     03DC                     l1577:
  3917     03DC  0848               	movf	___fladd@b,w
  3918     03DD  00DB               	movwf	___fladd@grs
  3919     03DE                     l1579:
  3920     03DE  084C               	movf	___fladd@a,w
  3921     03DF  00C8               	movwf	___fladd@b
  3922     03E0                     l1581:
  3923     03E0  085B               	movf	___fladd@grs,w
  3924     03E1  00CC               	movwf	___fladd@a
  3925     03E2                     l1583:
  3926     03E2  0849               	movf	___fladd@b+1,w
  3927     03E3  00DB               	movwf	___fladd@grs
  3928     03E4                     l1585:
  3929     03E4  084D               	movf	___fladd@a+1,w
  3930     03E5  00C9               	movwf	___fladd@b+1
  3931     03E6                     l1587:
  3932     03E6  085B               	movf	___fladd@grs,w
  3933     03E7  00CD               	movwf	___fladd@a+1
  3934     03E8                     l1589:
  3935     03E8  084A               	movf	___fladd@b+2,w
  3936     03E9  00DB               	movwf	___fladd@grs
  3937     03EA                     l1591:
  3938     03EA  084E               	movf	___fladd@a+2,w
  3939     03EB  00CA               	movwf	___fladd@b+2
  3940     03EC                     l1593:
  3941     03EC  085B               	movf	___fladd@grs,w
  3942     03ED  00CE               	movwf	___fladd@a+2
  3943     03EE                     l1595:
  3944     03EE  084B               	movf	___fladd@b+3,w
  3945     03EF  00DB               	movwf	___fladd@grs
  3946     03F0                     l1597:
  3947     03F0  084F               	movf	___fladd@a+3,w
  3948     03F1  00CB               	movwf	___fladd@b+3
  3949     03F2                     l1599:
  3950     03F2  085B               	movf	___fladd@grs,w
  3951     03F3  00CF               	movwf	___fladd@a+3
  3952     03F4                     l1601:
  3953     03F4  01DB               	clrf	___fladd@grs
  3954     03F5                     l1603:
  3955     03F5  0859               	movf	___fladd@aexp,w
  3956     03F6  00D0               	movwf	??___fladd
  3957     03F7  01D1               	clrf	??___fladd+1
  3958     03F8  0851               	movf	??___fladd+1,w
  3959     03F9  00D3               	movwf	??___fladd+3
  3960     03FA  085A               	movf	___fladd@bexp,w
  3961     03FB  0250               	subwf	??___fladd,w
  3962     03FC  00D2               	movwf	??___fladd+2
  3963     03FD  1C03               	skipc
  3964     03FE  03D3               	decf	??___fladd+3,f
  3965     03FF  0853               	movf	??___fladd+3,w
  3966     0400  3A80               	xorlw	128
  3967     0401  00FF               	movwf	btemp+1
  3968     0402  3080               	movlw	128
  3969     0403  027F               	subwf	btemp+1,w
  3970     0404  1D03               	skipz
  3971     0405  2C08               	goto	u1745
  3972     0406  301A               	movlw	26
  3973     0407  0252               	subwf	??___fladd+2,w
  3974     0408                     u1745:
  3975     0408  1C03               	skipc
  3976     0409  2C0B               	goto	u1741
  3977     040A  2C0C               	goto	u1740
  3978     040B                     u1741:
  3979     040B  2C43               	goto	l1619
  3980     040C                     u1740:
  3981     040C                     l1605:
  3982     040C  1283               	bcf	3,5	;RP0=0, select bank0
  3983     040D  1303               	bcf	3,6	;RP1=0, select bank0
  3984     040E  084B               	movf	___fladd@b+3,w
  3985     040F  044A               	iorwf	___fladd@b+2,w
  3986     0410  0449               	iorwf	___fladd@b+1,w
  3987     0411  0448               	iorwf	___fladd@b,w
  3988     0412  1D03               	skipz
  3989     0413  2C15               	goto	u1751
  3990     0414  2C17               	goto	u1750
  3991     0415                     u1751:
  3992     0415  3001               	movlw	1
  3993     0416  2C18               	goto	u1760
  3994     0417                     u1750:
  3995     0417  3000               	movlw	0
  3996     0418                     u1760:
  3997     0418  00DB               	movwf	___fladd@grs
  3998     0419  3000               	movlw	0
  3999     041A  00CB               	movwf	___fladd@b+3
  4000     041B  3000               	movlw	0
  4001     041C  00CA               	movwf	___fladd@b+2
  4002     041D  3000               	movlw	0
  4003     041E  00C9               	movwf	___fladd@b+1
  4004     041F  3000               	movlw	0
  4005     0420  00C8               	movwf	___fladd@b
  4006     0421  0859               	movf	___fladd@aexp,w
  4007     0422  00DA               	movwf	___fladd@bexp
  4008     0423  2C4B               	goto	l538
  4009     0424                     l540:
  4010     0424  1C5B               	btfss	___fladd@grs,0
  4011     0425  2C27               	goto	u1771
  4012     0426  2C28               	goto	u1770
  4013     0427                     u1771:
  4014     0427  2C2F               	goto	l1609
  4015     0428                     u1770:
  4016     0428                     l1607:
  4017     0428  085B               	movf	___fladd@grs,w
  4018     0429  00D0               	movwf	??___fladd
  4019     042A  1003               	clrc
  4020     042B  0C50               	rrf	??___fladd,w
  4021     042C  3801               	iorlw	1
  4022     042D  00DB               	movwf	___fladd@grs
  4023     042E  2C31               	goto	l1611
  4024     042F                     l1609:
  4025     042F  1003               	clrc
  4026     0430  0CDB               	rrf	___fladd@grs,f
  4027     0431                     l1611:
  4028     0431  1C48               	btfss	___fladd@b,0
  4029     0432  2C34               	goto	u1781
  4030     0433  2C35               	goto	u1780
  4031     0434                     u1781:
  4032     0434  2C36               	goto	l1615
  4033     0435                     u1780:
  4034     0435                     l1613:
  4035     0435  17DB               	bsf	___fladd@grs,7
  4036     0436                     l1615:
  4037     0436  3001               	movlw	1
  4038     0437  00D0               	movwf	??___fladd
  4039     0438                     u1795:
  4040     0438  0D4B               	rlf	___fladd@b+3,w
  4041     0439  0CCB               	rrf	___fladd@b+3,f
  4042     043A  0CCA               	rrf	___fladd@b+2,f
  4043     043B  0CC9               	rrf	___fladd@b+1,f
  4044     043C  0CC8               	rrf	___fladd@b,f
  4045     043D  0BD0               	decfsz	??___fladd& (0+127),f
  4046     043E  2C38               	goto	u1795
  4047     043F                     l1617:
  4048     043F  3001               	movlw	1
  4049     0440  00D0               	movwf	??___fladd
  4050     0441  0850               	movf	??___fladd,w
  4051     0442  07DA               	addwf	___fladd@bexp,f
  4052     0443                     l1619:
  4053     0443  1283               	bcf	3,5	;RP0=0, select bank0
  4054     0444  1303               	bcf	3,6	;RP1=0, select bank0
  4055     0445  0859               	movf	___fladd@aexp,w
  4056     0446  025A               	subwf	___fladd@bexp,w
  4057     0447  1C03               	skipc
  4058     0448  2C4A               	goto	u1801
  4059     0449  2C4B               	goto	u1800
  4060     044A                     u1801:
  4061     044A  2C24               	goto	l540
  4062     044B                     u1800:
  4063     044B                     l538:
  4064     044B  1B58               	btfsc	___fladd@signs,6
  4065     044C  2C4E               	goto	u1811
  4066     044D  2C4F               	goto	u1810
  4067     044E                     u1811:
  4068     044E  2C98               	goto	l1645
  4069     044F                     u1810:
  4070     044F                     l1621:
  4071     044F  085A               	movf	___fladd@bexp,w
  4072     0450  1D03               	btfss	3,2
  4073     0451  2C53               	goto	u1821
  4074     0452  2C54               	goto	u1820
  4075     0453                     u1821:
  4076     0453  2C5D               	goto	l1627
  4077     0454                     u1820:
  4078     0454                     l1623:
  4079     0454  3000               	movlw	0
  4080     0455  00CB               	movwf	?___fladd+3
  4081     0456  3000               	movlw	0
  4082     0457  00CA               	movwf	?___fladd+2
  4083     0458  3000               	movlw	0
  4084     0459  00C9               	movwf	?___fladd+1
  4085     045A  3000               	movlw	0
  4086     045B  00C8               	movwf	?___fladd
  4087     045C  2DC4               	goto	l547
  4088     045D                     l1627:
  4089     045D  084C               	movf	___fladd@a,w
  4090     045E  07C8               	addwf	___fladd@b,f
  4091     045F  084D               	movf	___fladd@a+1,w
  4092     0460  1103               	clrz
  4093     0461  1803               	skipnc
  4094     0462  3E01               	addlw	1
  4095     0463  1903               	skipnz
  4096     0464  2C66               	goto	u1831
  4097     0465  07C9               	addwf	___fladd@b+1,f
  4098     0466                     u1831:
  4099     0466  084E               	movf	___fladd@a+2,w
  4100     0467  1103               	clrz
  4101     0468  1803               	skipnc
  4102     0469  3E01               	addlw	1
  4103     046A  1903               	skipnz
  4104     046B  2C6D               	goto	u1832
  4105     046C  07CA               	addwf	___fladd@b+2,f
  4106     046D                     u1832:
  4107     046D  084F               	movf	___fladd@a+3,w
  4108     046E  1103               	clrz
  4109     046F  1803               	skipnc
  4110     0470  3E01               	addlw	1
  4111     0471  1903               	skipnz
  4112     0472  2C74               	goto	u1833
  4113     0473  07CB               	addwf	___fladd@b+3,f
  4114     0474                     u1833:
  4115     0474                     l1629:
  4116     0474  1C4B               	btfss	___fladd@b+3,0
  4117     0475  2C77               	goto	u1841
  4118     0476  2C78               	goto	u1840
  4119     0477                     u1841:
  4120     0477  2D4C               	goto	l1679
  4121     0478                     u1840:
  4122     0478                     l1631:
  4123     0478  1C5B               	btfss	___fladd@grs,0
  4124     0479  2C7B               	goto	u1851
  4125     047A  2C7C               	goto	u1850
  4126     047B                     u1851:
  4127     047B  2C83               	goto	l1635
  4128     047C                     u1850:
  4129     047C                     l1633:
  4130     047C  085B               	movf	___fladd@grs,w
  4131     047D  00D0               	movwf	??___fladd
  4132     047E  1003               	clrc
  4133     047F  0C50               	rrf	??___fladd,w
  4134     0480  3801               	iorlw	1
  4135     0481  00DB               	movwf	___fladd@grs
  4136     0482  2C85               	goto	l1637
  4137     0483                     l1635:
  4138     0483  1003               	clrc
  4139     0484  0CDB               	rrf	___fladd@grs,f
  4140     0485                     l1637:
  4141     0485  1C48               	btfss	___fladd@b,0
  4142     0486  2C88               	goto	u1861
  4143     0487  2C89               	goto	u1860
  4144     0488                     u1861:
  4145     0488  2C8A               	goto	l1641
  4146     0489                     u1860:
  4147     0489                     l1639:
  4148     0489  17DB               	bsf	___fladd@grs,7
  4149     048A                     l1641:
  4150     048A  3001               	movlw	1
  4151     048B  00D0               	movwf	??___fladd
  4152     048C                     u1875:
  4153     048C  0D4B               	rlf	___fladd@b+3,w
  4154     048D  0CCB               	rrf	___fladd@b+3,f
  4155     048E  0CCA               	rrf	___fladd@b+2,f
  4156     048F  0CC9               	rrf	___fladd@b+1,f
  4157     0490  0CC8               	rrf	___fladd@b,f
  4158     0491  0BD0               	decfsz	??___fladd& (0+127),f
  4159     0492  2C8C               	goto	u1875
  4160     0493                     l1643:
  4161     0493  3001               	movlw	1
  4162     0494  00D0               	movwf	??___fladd
  4163     0495  0850               	movf	??___fladd,w
  4164     0496  07DA               	addwf	___fladd@bexp,f
  4165     0497  2D4C               	goto	l1679
  4166     0498                     l1645:
  4167     0498  084B               	movf	___fladd@b+3,w
  4168     0499  3A80               	xorlw	128
  4169     049A  00FF               	movwf	btemp+1
  4170     049B  084F               	movf	___fladd@a+3,w
  4171     049C  3A80               	xorlw	128
  4172     049D  027F               	subwf	btemp+1,w
  4173     049E  1D03               	skipz
  4174     049F  2CAA               	goto	u1883
  4175     04A0  084E               	movf	___fladd@a+2,w
  4176     04A1  024A               	subwf	___fladd@b+2,w
  4177     04A2  1D03               	skipz
  4178     04A3  2CAA               	goto	u1883
  4179     04A4  084D               	movf	___fladd@a+1,w
  4180     04A5  0249               	subwf	___fladd@b+1,w
  4181     04A6  1D03               	skipz
  4182     04A7  2CAA               	goto	u1883
  4183     04A8  084C               	movf	___fladd@a,w
  4184     04A9  0248               	subwf	___fladd@b,w
  4185     04AA                     u1883:
  4186     04AA  1803               	skipnc
  4187     04AB  2CAD               	goto	u1881
  4188     04AC  2CAE               	goto	u1880
  4189     04AD                     u1881:
  4190     04AD  2D06               	goto	l1655
  4191     04AE                     u1880:
  4192     04AE                     l1647:
  4193     04AE  30FF               	movlw	255
  4194     04AF  00D0               	movwf	??___fladd
  4195     04B0  30FF               	movlw	255
  4196     04B1  00D1               	movwf	??___fladd+1
  4197     04B2  30FF               	movlw	255
  4198     04B3  00D2               	movwf	??___fladd+2
  4199     04B4  30FF               	movlw	255
  4200     04B5  00D3               	movwf	??___fladd+3
  4201     04B6  084C               	movf	___fladd@a,w
  4202     04B7  00D4               	movwf	??___fladd+4
  4203     04B8  084D               	movf	___fladd@a+1,w
  4204     04B9  00D5               	movwf	??___fladd+5
  4205     04BA  084E               	movf	___fladd@a+2,w
  4206     04BB  00D6               	movwf	??___fladd+6
  4207     04BC  084F               	movf	___fladd@a+3,w
  4208     04BD  00D7               	movwf	??___fladd+7
  4209     04BE  0848               	movf	___fladd@b,w
  4210     04BF  02D4               	subwf	??___fladd+4,f
  4211     04C0  0849               	movf	___fladd@b+1,w
  4212     04C1  1C03               	skipc
  4213     04C2  0F49               	incfsz	___fladd@b+1,w
  4214     04C3  2CC5               	goto	u1891
  4215     04C4  2CC6               	goto	u1892
  4216     04C5                     u1891:
  4217     04C5  02D5               	subwf	??___fladd+5,f
  4218     04C6                     u1892:
  4219     04C6  084A               	movf	___fladd@b+2,w
  4220     04C7  1C03               	skipc
  4221     04C8  0F4A               	incfsz	___fladd@b+2,w
  4222     04C9  2CCB               	goto	u1893
  4223     04CA  2CCC               	goto	u1894
  4224     04CB                     u1893:
  4225     04CB  02D6               	subwf	??___fladd+6,f
  4226     04CC                     u1894:
  4227     04CC  084B               	movf	___fladd@b+3,w
  4228     04CD  1C03               	skipc
  4229     04CE  0F4B               	incfsz	___fladd@b+3,w
  4230     04CF  2CD1               	goto	u1895
  4231     04D0  2CD2               	goto	u1896
  4232     04D1                     u1895:
  4233     04D1  02D7               	subwf	??___fladd+7,f
  4234     04D2                     u1896:
  4235     04D2  0854               	movf	??___fladd+4,w
  4236     04D3  07D0               	addwf	??___fladd,f
  4237     04D4  0855               	movf	??___fladd+5,w
  4238     04D5  1803               	skipnc
  4239     04D6  0F55               	incfsz	??___fladd+5,w
  4240     04D7  2CD9               	goto	u1900
  4241     04D8  2CDA               	goto	u1901
  4242     04D9                     u1900:
  4243     04D9  07D1               	addwf	??___fladd+1,f
  4244     04DA                     u1901:
  4245     04DA  0856               	movf	??___fladd+6,w
  4246     04DB  1803               	skipnc
  4247     04DC  0F56               	incfsz	??___fladd+6,w
  4248     04DD  2CDF               	goto	u1902
  4249     04DE  2CE0               	goto	u1903
  4250     04DF                     u1902:
  4251     04DF  07D2               	addwf	??___fladd+2,f
  4252     04E0                     u1903:
  4253     04E0  0857               	movf	??___fladd+7,w
  4254     04E1  1803               	skipnc
  4255     04E2  0A57               	incf	??___fladd+7,w
  4256     04E3  07D3               	addwf	??___fladd+3,f
  4257     04E4  0853               	movf	??___fladd+3,w
  4258     04E5  00CB               	movwf	___fladd@b+3
  4259     04E6  0852               	movf	??___fladd+2,w
  4260     04E7  00CA               	movwf	___fladd@b+2
  4261     04E8  0851               	movf	??___fladd+1,w
  4262     04E9  00C9               	movwf	___fladd@b+1
  4263     04EA  0850               	movf	??___fladd,w
  4264     04EB  00C8               	movwf	___fladd@b
  4265     04EC                     l1649:
  4266     04EC  3080               	movlw	128
  4267     04ED  00D0               	movwf	??___fladd
  4268     04EE  0850               	movf	??___fladd,w
  4269     04EF  06D8               	xorwf	___fladd@signs,f
  4270     04F0  09DB               	comf	___fladd@grs,f
  4271     04F1  0ADB               	incf	___fladd@grs,f
  4272     04F2                     l1651:
  4273     04F2  085B               	movf	___fladd@grs,w
  4274     04F3  1D03               	btfss	3,2
  4275     04F4  2CF6               	goto	u1911
  4276     04F5  2CF7               	goto	u1910
  4277     04F6                     u1911:
  4278     04F6  2D14               	goto	l555
  4279     04F7                     u1910:
  4280     04F7                     l1653:
  4281     04F7  3001               	movlw	1
  4282     04F8  07C8               	addwf	___fladd@b,f
  4283     04F9  3000               	movlw	0
  4284     04FA  1803               	skipnc
  4285     04FB  3001               	movlw	1
  4286     04FC  07C9               	addwf	___fladd@b+1,f
  4287     04FD  3000               	movlw	0
  4288     04FE  1803               	skipnc
  4289     04FF  3001               	movlw	1
  4290     0500  07CA               	addwf	___fladd@b+2,f
  4291     0501  3000               	movlw	0
  4292     0502  1803               	skipnc
  4293     0503  3001               	movlw	1
  4294     0504  07CB               	addwf	___fladd@b+3,f
  4295     0505  2D14               	goto	l555
  4296     0506                     l1655:
  4297     0506  084C               	movf	___fladd@a,w
  4298     0507  02C8               	subwf	___fladd@b,f
  4299     0508  084D               	movf	___fladd@a+1,w
  4300     0509  1C03               	skipc
  4301     050A  0F4D               	incfsz	___fladd@a+1,w
  4302     050B  02C9               	subwf	___fladd@b+1,f
  4303     050C  084E               	movf	___fladd@a+2,w
  4304     050D  1C03               	skipc
  4305     050E  0F4E               	incfsz	___fladd@a+2,w
  4306     050F  02CA               	subwf	___fladd@b+2,f
  4307     0510  084F               	movf	___fladd@a+3,w
  4308     0511  1C03               	skipc
  4309     0512  0F4F               	incfsz	___fladd@a+3,w
  4310     0513  02CB               	subwf	___fladd@b+3,f
  4311     0514                     l555:
  4312     0514  084B               	movf	___fladd@b+3,w
  4313     0515  044A               	iorwf	___fladd@b+2,w
  4314     0516  0449               	iorwf	___fladd@b+1,w
  4315     0517  0448               	iorwf	___fladd@b,w
  4316     0518  1D03               	skipz
  4317     0519  2D1B               	goto	u1921
  4318     051A  2D1C               	goto	u1920
  4319     051B                     u1921:
  4320     051B  2D48               	goto	l1677
  4321     051C                     u1920:
  4322     051C                     l1657:
  4323     051C  085B               	movf	___fladd@grs,w
  4324     051D  1D03               	btfss	3,2
  4325     051E  2D20               	goto	u1931
  4326     051F  2D21               	goto	u1930
  4327     0520                     u1931:
  4328     0520  2D48               	goto	l1677
  4329     0521                     u1930:
  4330     0521                     l1659:
  4331     0521  3000               	movlw	0
  4332     0522  00CB               	movwf	?___fladd+3
  4333     0523  3000               	movlw	0
  4334     0524  00CA               	movwf	?___fladd+2
  4335     0525  3000               	movlw	0
  4336     0526  00C9               	movwf	?___fladd+1
  4337     0527  3000               	movlw	0
  4338     0528  00C8               	movwf	?___fladd
  4339     0529  2DC4               	goto	l547
  4340     052A                     l1663:
  4341     052A  3001               	movlw	1
  4342     052B  00D0               	movwf	??___fladd
  4343     052C                     u1945:
  4344     052C  1003               	clrc
  4345     052D  0DC8               	rlf	___fladd@b,f
  4346     052E  0DC9               	rlf	___fladd@b+1,f
  4347     052F  0DCA               	rlf	___fladd@b+2,f
  4348     0530  0DCB               	rlf	___fladd@b+3,f
  4349     0531  0BD0               	decfsz	??___fladd,f
  4350     0532  2D2C               	goto	u1945
  4351     0533                     l1665:
  4352     0533  1FDB               	btfss	___fladd@grs,7
  4353     0534  2D36               	goto	u1951
  4354     0535  2D37               	goto	u1950
  4355     0536                     u1951:
  4356     0536  2D38               	goto	l559
  4357     0537                     u1950:
  4358     0537                     l1667:
  4359     0537  1448               	bsf	___fladd@b,0
  4360     0538                     l559:
  4361     0538  1C5B               	btfss	___fladd@grs,0
  4362     0539  2D3B               	goto	u1961
  4363     053A  2D3C               	goto	u1960
  4364     053B                     u1961:
  4365     053B  2D3F               	goto	l1671
  4366     053C                     u1960:
  4367     053C                     l1669:
  4368     053C  1403               	setc
  4369     053D  0DDB               	rlf	___fladd@grs,f
  4370     053E  2D41               	goto	l1673
  4371     053F                     l1671:
  4372     053F  1003               	clrc
  4373     0540  0DDB               	rlf	___fladd@grs,f
  4374     0541                     l1673:
  4375     0541  085A               	movf	___fladd@bexp,w
  4376     0542  1903               	btfsc	3,2
  4377     0543  2D45               	goto	u1971
  4378     0544  2D46               	goto	u1970
  4379     0545                     u1971:
  4380     0545  2D48               	goto	l1677
  4381     0546                     u1970:
  4382     0546                     l1675:
  4383     0546  3001               	movlw	1
  4384     0547  02DA               	subwf	___fladd@bexp,f
  4385     0548                     l1677:
  4386     0548  1FCA               	btfss	___fladd@b+2,7
  4387     0549  2D4B               	goto	u1981
  4388     054A  2D4C               	goto	u1980
  4389     054B                     u1981:
  4390     054B  2D2A               	goto	l1663
  4391     054C                     u1980:
  4392     054C                     l1679:
  4393     054C  01D9               	clrf	___fladd@aexp
  4394     054D                     l1681:
  4395     054D  1FDB               	btfss	___fladd@grs,7
  4396     054E  2D50               	goto	u1991
  4397     054F  2D51               	goto	u1990
  4398     0550                     u1991:
  4399     0550  2D5F               	goto	l1689
  4400     0551                     u1990:
  4401     0551                     l1683:
  4402     0551  085B               	movf	___fladd@grs,w
  4403     0552  397F               	andlw	127
  4404     0553  1903               	btfsc	3,2
  4405     0554  2D56               	goto	u2001
  4406     0555  2D57               	goto	u2000
  4407     0556                     u2001:
  4408     0556  2D5A               	goto	l565
  4409     0557                     u2000:
  4410     0557                     l1685:
  4411     0557  01D9               	clrf	___fladd@aexp
  4412     0558  0AD9               	incf	___fladd@aexp,f
  4413     0559  2D5F               	goto	l1689
  4414     055A                     l565:
  4415     055A  1C48               	btfss	___fladd@b,0
  4416     055B  2D5D               	goto	u2011
  4417     055C  2D5E               	goto	u2010
  4418     055D                     u2011:
  4419     055D  2D5F               	goto	l1689
  4420     055E                     u2010:
  4421     055E  2D57               	goto	l1685
  4422     055F                     l1689:
  4423     055F  0859               	movf	___fladd@aexp,w
  4424     0560  1903               	btfsc	3,2
  4425     0561  2D63               	goto	u2021
  4426     0562  2D64               	goto	u2020
  4427     0563                     u2021:
  4428     0563  2D98               	goto	l568
  4429     0564                     u2020:
  4430     0564                     l1691:
  4431     0564  3001               	movlw	1
  4432     0565  07C8               	addwf	___fladd@b,f
  4433     0566  3000               	movlw	0
  4434     0567  1803               	skipnc
  4435     0568  3001               	movlw	1
  4436     0569  07C9               	addwf	___fladd@b+1,f
  4437     056A  3000               	movlw	0
  4438     056B  1803               	skipnc
  4439     056C  3001               	movlw	1
  4440     056D  07CA               	addwf	___fladd@b+2,f
  4441     056E  3000               	movlw	0
  4442     056F  1803               	skipnc
  4443     0570  3001               	movlw	1
  4444     0571  07CB               	addwf	___fladd@b+3,f
  4445     0572                     l1693:
  4446     0572  1C4B               	btfss	___fladd@b+3,0
  4447     0573  2D75               	goto	u2031
  4448     0574  2D76               	goto	u2030
  4449     0575                     u2031:
  4450     0575  2D98               	goto	l568
  4451     0576                     u2030:
  4452     0576                     l1695:
  4453     0576  0848               	movf	___fladd@b,w
  4454     0577  00D0               	movwf	??___fladd
  4455     0578  0849               	movf	___fladd@b+1,w
  4456     0579  00D1               	movwf	??___fladd+1
  4457     057A  084A               	movf	___fladd@b+2,w
  4458     057B  00D2               	movwf	??___fladd+2
  4459     057C  084B               	movf	___fladd@b+3,w
  4460     057D  00D3               	movwf	??___fladd+3
  4461     057E  3001               	movlw	1
  4462     057F  00D4               	movwf	??___fladd+4
  4463     0580                     u2045:
  4464     0580  0D53               	rlf	??___fladd+3,w
  4465     0581  0CD3               	rrf	??___fladd+3,f
  4466     0582  0CD2               	rrf	??___fladd+2,f
  4467     0583  0CD1               	rrf	??___fladd+1,f
  4468     0584  0CD0               	rrf	??___fladd,f
  4469     0585                     u2040:
  4470     0585  0BD4               	decfsz	??___fladd+4,f
  4471     0586  2D80               	goto	u2045
  4472     0587  0853               	movf	??___fladd+3,w
  4473     0588  00CB               	movwf	___fladd@b+3
  4474     0589  0852               	movf	??___fladd+2,w
  4475     058A  00CA               	movwf	___fladd@b+2
  4476     058B  0851               	movf	??___fladd+1,w
  4477     058C  00C9               	movwf	___fladd@b+1
  4478     058D  0850               	movf	??___fladd,w
  4479     058E  00C8               	movwf	___fladd@b
  4480     058F  0A5A               	incf	___fladd@bexp,w
  4481     0590  1903               	btfsc	3,2
  4482     0591  2D93               	goto	u2051
  4483     0592  2D94               	goto	u2050
  4484     0593                     u2051:
  4485     0593  2D98               	goto	l568
  4486     0594                     u2050:
  4487     0594                     l1697:
  4488     0594  3001               	movlw	1
  4489     0595  00D0               	movwf	??___fladd
  4490     0596  0850               	movf	??___fladd,w
  4491     0597  07DA               	addwf	___fladd@bexp,f
  4492     0598                     l568:
  4493     0598  0A5A               	incf	___fladd@bexp,w
  4494     0599  1903               	btfsc	3,2
  4495     059A  2D9C               	goto	u2061
  4496     059B  2D9D               	goto	u2060
  4497     059C                     u2061:
  4498     059C  2DA2               	goto	l1701
  4499     059D                     u2060:
  4500     059D                     l1699:
  4501     059D  085A               	movf	___fladd@bexp,w
  4502     059E  1D03               	btfss	3,2
  4503     059F  2DA1               	goto	u2071
  4504     05A0  2DA2               	goto	u2070
  4505     05A1                     u2071:
  4506     05A1  2DB0               	goto	l1707
  4507     05A2                     u2070:
  4508     05A2                     l1701:
  4509     05A2  3000               	movlw	0
  4510     05A3  00CB               	movwf	___fladd@b+3
  4511     05A4  3000               	movlw	0
  4512     05A5  00CA               	movwf	___fladd@b+2
  4513     05A6  3000               	movlw	0
  4514     05A7  00C9               	movwf	___fladd@b+1
  4515     05A8  3000               	movlw	0
  4516     05A9  00C8               	movwf	___fladd@b
  4517     05AA                     l1703:
  4518     05AA  085A               	movf	___fladd@bexp,w
  4519     05AB  1D03               	btfss	3,2
  4520     05AC  2DAE               	goto	u2081
  4521     05AD  2DAF               	goto	u2080
  4522     05AE                     u2081:
  4523     05AE  2DB0               	goto	l1707
  4524     05AF                     u2080:
  4525     05AF                     l1705:
  4526     05AF  01D8               	clrf	___fladd@signs
  4527     05B0                     l1707:
  4528     05B0  1C5A               	btfss	___fladd@bexp,0
  4529     05B1  2DB3               	goto	u2091
  4530     05B2  2DB4               	goto	u2090
  4531     05B3                     u2091:
  4532     05B3  2DB6               	goto	l1711
  4533     05B4                     u2090:
  4534     05B4                     l1709:
  4535     05B4  17CA               	bsf	___fladd@b+2,7
  4536     05B5  2DBA               	goto	l576
  4537     05B6                     l1711:
  4538     05B6  307F               	movlw	127
  4539     05B7  00D0               	movwf	??___fladd
  4540     05B8  0850               	movf	??___fladd,w
  4541     05B9  05CA               	andwf	___fladd@b+2,f
  4542     05BA                     l576:
  4543     05BA  085A               	movf	___fladd@bexp,w
  4544     05BB  00D0               	movwf	??___fladd
  4545     05BC  1003               	clrc
  4546     05BD  0C50               	rrf	??___fladd,w
  4547     05BE  00CB               	movwf	___fladd@b+3
  4548     05BF                     l1713:
  4549     05BF  1FD8               	btfss	___fladd@signs,7
  4550     05C0  2DC2               	goto	u2101
  4551     05C1  2DC3               	goto	u2100
  4552     05C2                     u2101:
  4553     05C2  2DC4               	goto	l577
  4554     05C3                     u2100:
  4555     05C3                     l1715:
  4556     05C3  17CB               	bsf	___fladd@b+3,7
  4557     05C4                     l577:
  4558     05C4                     l547:
  4559     05C4  0008               	return
  4560     05C5                     __end_of___fladd:
  4561                           
  4562                           	psect	text14
  4563     07BE                     __ptext14:	
  4564 ;; *************** function _isr *****************
  4565 ;; Defined at:
  4566 ;;		line 65 in file "main.c"
  4567 ;; Parameters:    Size  Location     Type
  4568 ;;		None
  4569 ;; Auto vars:     Size  Location     Type
  4570 ;;		None
  4571 ;; Return value:  Size  Location     Type
  4572 ;;                  1    wreg      void 
  4573 ;; Registers used:
  4574 ;;		wreg, status,2, status,0, pclath, cstack
  4575 ;; Tracked objects:
  4576 ;;		On entry : 0/0
  4577 ;;		On exit  : 0/0
  4578 ;;		Unchanged: 0/0
  4579 ;; Data sizes:     COMMON   BANK0   BANK1   BANK3   BANK2
  4580 ;;      Params:         0       0       0       0       0
  4581 ;;      Locals:         0       0       0       0       0
  4582 ;;      Temps:          3       0       0       0       0
  4583 ;;      Totals:         3       0       0       0       0
  4584 ;;Total ram usage:        3 bytes
  4585 ;; Hardware stack levels used: 1
  4586 ;; Hardware stack levels required when called: 1
  4587 ;; This function calls:
  4588 ;;		_estado_alto
  4589 ;; This function is called by:
  4590 ;;		Interrupt level 1
  4591 ;; This function uses a non-reentrant model
  4592 ;;
  4593                           
  4594     07BE                     _isr:	
  4595                           ;psect for function _isr
  4596                           
  4597     07BE                     i1l1985:
  4598                           
  4599                           ;main.c: 67:     if(INTCONbits.T0IF)
  4600     07BE  1D0B               	btfss	11,2	;volatile
  4601     07BF  2FC1               	goto	u264_21
  4602     07C0  2FC2               	goto	u264_20
  4603     07C1                     u264_21:
  4604     07C1  2FE5               	goto	i1l2003
  4605     07C2                     u264_20:
  4606     07C2                     i1l1987:
  4607                           
  4608                           ;main.c: 68:     {;main.c: 69:         INTCONbits.T0IF = 0;
  4609     07C2  110B               	bcf	11,2	;volatile
  4610     07C3                     i1l1989:
  4611                           
  4612                           ;main.c: 70:         TMR0 = 100;
  4613     07C3  3064               	movlw	100
  4614     07C4  1283               	bcf	3,5	;RP0=0, select bank0
  4615     07C5  1303               	bcf	3,6	;RP1=0, select bank0
  4616     07C6  0081               	movwf	1	;volatile
  4617     07C7                     i1l1991:
  4618                           
  4619                           ;main.c: 72:         PORTCbits.RC3 = 1;
  4620     07C7  1587               	bsf	7,3	;volatile
  4621     07C8                     i1l1993:
  4622                           
  4623                           ;main.c: 73:         estado_alto (SERVO3);
  4624     07C8  1683               	bsf	3,5	;RP0=1, select bank1
  4625     07C9  1303               	bcf	3,6	;RP1=0, select bank1
  4626     07CA  0823               	movf	(_SERVO3+1)^(0+128),w
  4627     07CB  00F1               	movwf	estado_alto@seg+1
  4628     07CC  0822               	movf	_SERVO3^(0+128),w
  4629     07CD  00F0               	movwf	estado_alto@seg
  4630     07CE  120A  158A  254A  120A  118A  	fcall	_estado_alto
  4631     07D3                     i1l1995:
  4632                           
  4633                           ;main.c: 75:         PORTCbits.RC3 = 0;
  4634     07D3  1283               	bcf	3,5	;RP0=0, select bank0
  4635     07D4  1303               	bcf	3,6	;RP1=0, select bank0
  4636     07D5  1187               	bcf	7,3	;volatile
  4637     07D6                     i1l1997:
  4638                           
  4639                           ;main.c: 76:         PORTCbits.RC4 = 1;
  4640     07D6  1607               	bsf	7,4	;volatile
  4641     07D7                     i1l1999:
  4642                           
  4643                           ;main.c: 77:         estado_alto (SERVO4);
  4644     07D7  1683               	bsf	3,5	;RP0=1, select bank1
  4645     07D8  1303               	bcf	3,6	;RP1=0, select bank1
  4646     07D9  0821               	movf	(_SERVO4+1)^(0+128),w
  4647     07DA  00F1               	movwf	estado_alto@seg+1
  4648     07DB  0820               	movf	_SERVO4^(0+128),w
  4649     07DC  00F0               	movwf	estado_alto@seg
  4650     07DD  120A  158A  254A  120A  118A  	fcall	_estado_alto
  4651     07E2                     i1l2001:
  4652                           
  4653                           ;main.c: 79:         PORTCbits.RC4 = 0;
  4654     07E2  1283               	bcf	3,5	;RP0=0, select bank0
  4655     07E3  1303               	bcf	3,6	;RP1=0, select bank0
  4656     07E4  1207               	bcf	7,4	;volatile
  4657     07E5                     i1l2003:
  4658                           
  4659                           ;main.c: 90:     if (INTCONbits.RBIF)
  4660     07E5  1C0B               	btfss	11,0	;volatile
  4661     07E6  2FE8               	goto	u265_21
  4662     07E7  2FE9               	goto	u265_20
  4663     07E8                     u265_21:
  4664     07E8  2FF4               	goto	i1l104
  4665     07E9                     u265_20:
  4666     07E9                     i1l2005:
  4667                           
  4668                           ;main.c: 91:     {;main.c: 92:         if (PORTBbits.RB0 == 0)
  4669     07E9  1283               	bcf	3,5	;RP0=0, select bank0
  4670     07EA  1303               	bcf	3,6	;RP1=0, select bank0
  4671     07EB  1806               	btfsc	6,0	;volatile
  4672     07EC  2FEE               	goto	u266_21
  4673     07ED  2FEF               	goto	u266_20
  4674     07EE                     u266_21:
  4675     07EE  2FF3               	goto	i1l2009
  4676     07EF                     u266_20:
  4677     07EF                     i1l2007:
  4678                           
  4679                           ;main.c: 93:         {;main.c: 94:             MODO++;
  4680     07EF  3001               	movlw	1
  4681     07F0  00F2               	movwf	??_isr
  4682     07F1  0872               	movf	??_isr,w
  4683     07F2  07EE               	addwf	_MODO,f
  4684     07F3                     i1l2009:
  4685                           
  4686                           ;main.c: 97:         INTCONbits.RBIF = 0;
  4687     07F3  100B               	bcf	11,0	;volatile
  4688     07F4                     i1l104:
  4689     07F4  0874               	movf	??_isr+2,w
  4690     07F5  008A               	movwf	10
  4691     07F6  0E73               	swapf	??_isr+1,w
  4692     07F7  0083               	movwf	3
  4693     07F8  0EFE               	swapf	btemp,f
  4694     07F9  0E7E               	swapf	btemp,w
  4695     07FA  0009               	retfie
  4696     07FB                     __end_of_isr:
  4697                           
  4698                           	psect	intentry
  4699     0004                     __pintentry:	
  4700                           ;incstack = 0
  4701                           ; Regs used in _isr: [wreg+status,2+status,0+pclath+cstack]
  4702                           
  4703     0004                     interrupt_function:
  4704     007E                     saved_w	set	btemp
  4705     0004  00FE               	movwf	btemp
  4706     0005  0E03               	swapf	3,w
  4707     0006  00F3               	movwf	??_isr+1
  4708     0007  080A               	movf	10,w
  4709     0008  00F4               	movwf	??_isr+2
  4710     0009  120A  118A  2FBE   	ljmp	_isr
  4711                           
  4712                           	psect	text15
  4713     0D4A                     __ptext15:	
  4714 ;; *************** function _estado_alto *****************
  4715 ;; Defined at:
  4716 ;;		line 357 in file "main.c"
  4717 ;; Parameters:    Size  Location     Type
  4718 ;;  seg             2    0[COMMON] unsigned int 
  4719 ;; Auto vars:     Size  Location     Type
  4720 ;;		None
  4721 ;; Return value:  Size  Location     Type
  4722 ;;                  1    wreg      void 
  4723 ;; Registers used:
  4724 ;;		wreg, status,2, status,0
  4725 ;; Tracked objects:
  4726 ;;		On entry : 0/0
  4727 ;;		On exit  : 0/0
  4728 ;;		Unchanged: 0/0
  4729 ;; Data sizes:     COMMON   BANK0   BANK1   BANK3   BANK2
  4730 ;;      Params:         2       0       0       0       0
  4731 ;;      Locals:         0       0       0       0       0
  4732 ;;      Temps:          0       0       0       0       0
  4733 ;;      Totals:         2       0       0       0       0
  4734 ;;Total ram usage:        2 bytes
  4735 ;; Hardware stack levels used: 1
  4736 ;; This function calls:
  4737 ;;		Nothing
  4738 ;; This function is called by:
  4739 ;;		_isr
  4740 ;; This function uses a non-reentrant model
  4741 ;;
  4742                           
  4743     0D4A                     _estado_alto:	
  4744                           ;psect for function _estado_alto
  4745                           
  4746     0D4A                     i1l1901:	
  4747                           ;incstack = 0
  4748                           ; Regs used in _estado_alto: [wreg+status,2+status,0]
  4749                           
  4750                           
  4751                           ;main.c: 357: void estado_alto (unsigned int seg);main.c: 358: {;main.c: 359:     while 
      +                          (seg > 0)
  4752     0D4A  2D54               	goto	i1l1905
  4753     0D4B                     i1l144:
  4754                           
  4755                           ;main.c: 360:     {;main.c: 361:         _delay((unsigned long)((50)*(500000/4000000.0))
      +                          );
  4756     0D4B  2D4C               	nop2	;2 cycle nop
  4757     0D4C  2D4D               	nop2	;2 cycle nop
  4758     0D4D  2D4E               	nop2	;2 cycle nop
  4759     0D4E                     i1l1903:
  4760                           
  4761                           ;main.c: 362:         seg--;
  4762     0D4E  3001               	movlw	1
  4763     0D4F  02F0               	subwf	estado_alto@seg,f
  4764     0D50  3000               	movlw	0
  4765     0D51  1C03               	skipc
  4766     0D52  03F1               	decf	estado_alto@seg+1,f
  4767     0D53  02F1               	subwf	estado_alto@seg+1,f
  4768     0D54                     i1l1905:
  4769                           
  4770                           ;main.c: 359:     while (seg > 0)
  4771     0D54  0870               	movf	estado_alto@seg,w
  4772     0D55  0471               	iorwf	estado_alto@seg+1,w
  4773     0D56  1D03               	btfss	3,2
  4774     0D57  2D59               	goto	u262_21
  4775     0D58  2D5A               	goto	u262_20
  4776     0D59                     u262_21:
  4777     0D59  2D4B               	goto	i1l144
  4778     0D5A                     u262_20:
  4779     0D5A                     i1l146:
  4780     0D5A  0008               	return
  4781     0D5B                     __end_of_estado_alto:
  4782     007E                     btemp	set	126	;btemp
  4783     007E                     wtemp0	set	126
  4784                           
  4785                           	psect	idloc
  4786                           
  4787                           ;Config register IDLOC0 @ 0x2000
  4788                           ;	unspecified, using default values
  4789     2000                     	org	8192
  4790     2000  3FFF               	dw	16383
  4791                           
  4792                           ;Config register IDLOC1 @ 0x2001
  4793                           ;	unspecified, using default values
  4794     2001                     	org	8193
  4795     2001  3FFF               	dw	16383
  4796                           
  4797                           ;Config register IDLOC2 @ 0x2002
  4798                           ;	unspecified, using default values
  4799     2002                     	org	8194
  4800     2002  3FFF               	dw	16383
  4801                           
  4802                           ;Config register IDLOC3 @ 0x2003
  4803                           ;	unspecified, using default values
  4804     2003                     	org	8195
  4805     2003  3FFF               	dw	16383
  4806                           
  4807                           	psect	config
  4808                           
  4809                           ;Config register CONFIG1 @ 0x2007
  4810                           ;	Oscillator Selection bits
  4811                           ;	FOSC = INTRC_NOCLKOUT, INTOSCIO oscillator: I/O function on RA6/OSC2/CLKOUT pin, I/O f
      +                          unction on RA7/OSC1/CLKIN
  4812                           ;	Watchdog Timer Enable bit
  4813                           ;	WDTE = OFF, WDT disabled and can be enabled by SWDTEN bit of the WDTCON register
  4814                           ;	Power-up Timer Enable bit
  4815                           ;	PWRTE = OFF, PWRT disabled
  4816                           ;	RE3/MCLR pin function select bit
  4817                           ;	MCLRE = OFF, RE3/MCLR pin function is digital input, MCLR internally tied to VDD
  4818                           ;	Code Protection bit
  4819                           ;	CP = OFF, Program memory code protection is disabled
  4820                           ;	Data Code Protection bit
  4821                           ;	CPD = OFF, Data memory code protection is disabled
  4822                           ;	Brown Out Reset Selection bits
  4823                           ;	BOREN = OFF, BOR disabled
  4824                           ;	Internal External Switchover bit
  4825                           ;	IESO = OFF, Internal/External Switchover mode is disabled
  4826                           ;	Fail-Safe Clock Monitor Enabled bit
  4827                           ;	FCMEN = OFF, Fail-Safe Clock Monitor is disabled
  4828                           ;	Low Voltage Programming Enable bit
  4829                           ;	LVP = OFF, RB3 pin has digital I/O, HV on MCLR must be used for programming
  4830                           ;	In-Circuit Debugger Mode bit
  4831                           ;	DEBUG = 0x1, unprogramme  4832     2007                     	org	8199
  4833     2007  20D4               	dw	8404
  4834                           
  4835                           ;Config register CONFIG2 @ 0x2008
  4836                           ;	Brown-out Reset Selection bit
  4837                           ;	BOR4V = BOR40V, Brown-out Reset set to 4.0V
  4838                           ;	Flash Program Memory Self Write Enable bits
  4839                           ;	WRT = OFF, Write protection off
  4840     2008                     	org	8200
  4841     2008  3FFF               	dw	16383

Data Sizes:
    Strings     0
    Constant    0
    Data        0
    BSS         17
    Persistent  0
    Stack       0

Auto Spaces:
    Space          Size  Autos    Used
    COMMON           14      5       9
    BANK0            80     70      79
    BANK1            80      4       8
    BANK3            96      0       0
    BANK2            96      0       0

Pointer List with Targets:

    None.

Critical Paths under _main in COMMON

    None.

Critical Paths under _isr in COMMON

    _isr->_estado_alto

Critical Paths under _main in BANK0

    _map->___awdiv
    ___awdiv->___wmul
    _conv_s2->___fltol
    _conv_s1->___fltol
    ___fltol->___fladd
    ___flmul->___xxtofl
    ___fladd->___flmul

Critical Paths under _isr in BANK0

    None.

Critical Paths under _main in BANK1

    _main->_conv_s1
    _main->_conv_s2

Critical Paths under _isr in BANK1

    None.

Critical Paths under _main in BANK3

    None.

Critical Paths under _isr in BANK3

    None.

Critical Paths under _main in BANK2

    None.

Critical Paths under _isr in BANK2

    None.

Call Graph Tables:

 ---------------------------------------------------------------------------------
 (Depth) Function   	        Calls       Base Space   Used Autos Params    Refs
 ---------------------------------------------------------------------------------
 (0) _main                                                 2     2      0   15915
                                              2 BANK1      2     2      0
                            _conv_s1
                            _conv_s2
                                _map
                              _setup
                           _setupADC
                           _setupPWM
 ---------------------------------------------------------------------------------
 (1) _setupPWM                                             0     0      0       0
 ---------------------------------------------------------------------------------
 (1) _setupADC                                             1     1      0       0
                                              0 BANK0      1     1      0
 ---------------------------------------------------------------------------------
 (1) _setup                                                0     0      0       0
 ---------------------------------------------------------------------------------
 (1) _map                                                 12     4      8    1705
                                             15 BANK0     12     4      8
                            ___awdiv
                             ___wmul
 ---------------------------------------------------------------------------------
 (2) ___wmul                                               6     2      4     316
                                              0 BANK0      6     2      4
 ---------------------------------------------------------------------------------
 (2) ___awdiv                                              9     5      4     452
                                              6 BANK0      9     5      4
                             ___wmul (ARG)
 ---------------------------------------------------------------------------------
 (1) _conv_s2                                              2     0      2    7105
                                              0 BANK1      2     0      2
                            ___fladd
                            ___flmul
                            ___fltol
                           ___xxtofl
 ---------------------------------------------------------------------------------
 (1) _conv_s1                                              2     0      2    7105
                                              0 BANK1      2     0      2
                            ___fladd
                            ___flmul
                            ___fltol
                           ___xxtofl
 ---------------------------------------------------------------------------------
 (2) ___xxtofl                                            14    10      4     656
                                              0 BANK0     14    10      4
 ---------------------------------------------------------------------------------
 (2) ___fltol                                             10     6      4     381
                                             60 BANK0     10     6      4
                            ___fladd (ARG)
                            ___flmul (ARG)
                           ___xxtofl (ARG)
 ---------------------------------------------------------------------------------
 (2) ___flmul                                             26    18      8    3533
                                             14 BANK0     26    18      8
                          __Umul8_16
                           ___xxtofl (ARG)
 ---------------------------------------------------------------------------------
 (3) __Umul8_16                                            9     7      2     980
                                              0 BANK0      9     7      2
 ---------------------------------------------------------------------------------
 (2) ___fladd                                             20    12      8    2414
                                             40 BANK0     20    12      8
                            ___flmul (ARG)
                           ___xxtofl (ARG)
 ---------------------------------------------------------------------------------
 Estimated maximum stack depth 3
 ---------------------------------------------------------------------------------
 (Depth) Function   	        Calls       Base Space   Used Autos Params    Refs
 ---------------------------------------------------------------------------------
 (4) _isr                                                  3     3      0     175
                                              2 COMMON     3     3      0
                        _estado_alto
 ---------------------------------------------------------------------------------
 (5) _estado_alto                                          2     0      2     175
                                              0 COMMON     2     0      2
 ---------------------------------------------------------------------------------
 Estimated maximum stack depth 5
 ---------------------------------------------------------------------------------

 Call Graph Graphs:

 _main (ROOT)
   _conv_s1
     ___fladd
       ___flmul (ARG)
         __Umul8_16
         ___xxtofl (ARG)
       ___xxtofl (ARG)
     ___flmul
     ___fltol
       ___fladd (ARG)
       ___flmul (ARG)
       ___xxtofl (ARG)
     ___xxtofl
   _conv_s2
     ___fladd
     ___flmul
     ___fltol
     ___xxtofl
   _map
     ___awdiv
       ___wmul (ARG)
     ___wmul
   _setup
   _setupADC
   _setupPWM

 _isr (ROOT)
   _estado_alto

 Address spaces:
Name               Size   Autos  Total    Cost      Usage
BITCOMMON            E      0       0       0        0.0%
EEDATA             100      0       0       0        0.0%
NULL                 0      0       0       0        0.0%
CODE                 0      0       0       0        0.0%
COMMON               E      5       9       1       64.3%
BITSFR0              0      0       0       1        0.0%
SFR0                 0      0       0       1        0.0%
BITSFR1              0      0       0       2        0.0%
SFR1                 0      0       0       2        0.0%
STACK                0      0       0       2        0.0%
ABS                  0      0      60       3        0.0%
BITBANK0            50      0       0       4        0.0%
BITSFR3              0      0       0       4        0.0%
SFR3                 0      0       0       4        0.0%
BANK0               50     46      4F       5       98.8%
BITSFR2              0      0       0       5        0.0%
SFR2                 0      0       0       5        0.0%
BITBANK1            50      0       0       6        0.0%
BANK1               50      4       8       7       10.0%
BITBANK3            60      0       0       8        0.0%
BANK3               60      0       0       9        0.0%
BITBANK2            60      0       0      10        0.0%
BANK2               60      0       0      11        0.0%
DATA                 0      0      60      12        0.0%


Microchip Technology PIC Macro Assembler V2.40 build 20220703182018 
Symbol Table                                                                                   Sat Nov 19 02:43:48 2022

           ___awdiv@sign 002C      ___wmul@multiplicand 0022      __Umul8_16@word_mpld 0026  
                    l111 05E9                      l120 06AB                      l113 05ED  
                    l122 06AF                      l114 0625                      l131 0DFA  
                    l140 0D7F                      l116 0629                      l117 0661  
                    l134 0E2D                      l119 0665                      l152 0F1E  
                    l241 0D8E                      l137 0D77                      l243 0DA6  
                    l155 0E68                      l139 0D7B                      l149 0EC3  
                    l434 0FEA                      l427 0FFF                      l540 0424  
                    l437 0FFF                      l534 03C8                      l630 036C  
                    l538 044B                      l642 0360                      l394 0F87  
                    l555 0514                      l547 05C4                      l651 0DCF  
                    l636 02DC                      l565 055A                      l559 0538  
                    l576 05BA                      l568 0598                      l680 076B  
                    l577 05C4                      l649 0DBD                      l674 0728  
                    l676 07BD                      l687 0787                      l688 0793  
                    _PR2 0092                      _map 0E2E                      _isr 07BE  
          map@salida_max 0035            map@salida_min 0033             ___flmul@aexp 003C  
           ___flmul@bexp 0041             ___flmul@sign 003B             ___flmul@temp 0046  
           ___flmul@prod 0042             ___fltol@exp1 0065                     l2101 0D88  
                   l2111 0028                     l2103 0D95                     l2201 02AC  
                   l2121 003B                     l2113 002D                     l2105 0D9C  
                   l2211 02C1                     l2203 02AD                     l2131 0057  
                   l2123 0040                     l2115 0031                     l2107 0DA2  
                   l2221 02E6                     l2213 02C5                     l2205 02B6  
                   l2141 006A                     l2133 005B                     l2125 0048  
                   l2117 0035                     l1501 0FBA                     l2301 0EC4  
                   l2231 0324                     l2223 02F4                     l2215 02D9  
                   l2207 02BC                     l2151 0086                     l2143 0072  
                   l2135 005F                     l2127 004A                     l2119 0036  
                   l1503 0FBE                     l1511 0FD8                     l2303 0E31  
                   l2311 05DB                     l1601 03F4                     l2241 0356  
                   l2233 032F                     l2225 02F8                     l2209 02C0  
                   l2161 00C5                     l2145 0074                     l2137 0060  
                   l2129 0052                     l1521 0FF4                     l2321 05FD  
                   l2313 05DE                     l1611 0431                     l1603 03F5  
                   l1531 037B                     l1523 036D                     l2091 0DC6  
                   l2083 0DAA                     l2243 035A                     l2235 033E  
                   l2227 0311                     l2219 02E1                     l2171 014C  
                   l2163 00E1                     l2155 008F                     l2147 007C  
                   l2139 0065                     l2251 0707                     l1451 0F2D  
                   l1443 0F1F                     l2331 0622                     l2323 060C  
                   l2315 05E0                     l2307 05C5                     l1701 05A2  
                   l1621 044F                     l1613 0435                     l1605 040C  
                   l1533 0380                     l1541 0390                     l1525 0372  
                   l2093 0DCB                     l2085 0DAC                     l2245 035B  
                   l2237 0348                     l2229 0317                     l2181 01B9  
                   l2173 015A                     l2165 010B                     l2157 009D  
                   l2149 0081                     l1517 0FDF                     l1509 0FC6  
                   l2253 070C                     l1461 0F42                     l1453 0F31  
                   l1445 0F22                     l2341 0652                     l2333 062A  
                   l2325 0610                     l2317 05E6                     l2309 05D4  
                   l1711 05B6                     l1703 05AA                     l1631 0478  
                   l1623 0454                     l1615 0436                     l1607 0428  
                   l1551 03A6                     l1543 0398                     l1535 0385  
                   l1527 0376                     l2087 0DB3                     l2247 0364  
                   l2239 034A                     l2191 0260                     l2183 01D6  
                   l2175 0177                     l2167 0127                     l2159 00AA  
                   l1519 0FEF                     l2271 0754                     l2263 0739  
                   l2255 0710                     l1471 0F65                     l1463 0F45  
                   l1455 0F36                     l1447 0F26                     l2351 0696  
                   l2343 0658                     l2335 0639                     l2327 0616  
                   l2319 05EE                     l1713 05BF                     l1705 05AF  
                   l1641 048A                     l1633 047C                     l1617 043F  
                   l1609 042F                     l1561 03BD                     l1553 03AA  
                   l1545 039B                     l1537 038D                     l1529 037A  
                   l2089 0DB7                     l2193 0288                     l2185 0201  
                   l2177 0185                     l2169 0143                     l2281 078B  
                   l2273 0762                     l2265 073C                     l2257 0720  
                   l1481 0F7E                     l1473 0F6B                     l1465 0F4C  
                   l1457 0F3A                     l1449 0F2B                     l2097 0D80  
                   l2361 06BF                     l2353 069C                     l2345 065E  
                   l2337 0648                     l2329 061C                     l1715 05C3  
                   l1707 05B0                     l1651 04F2                     l1643 0493  
                   l1635 0483                     l1627 045D                     l1619 0443  
                   l1571 03D6                     l1563 03BE                     l1555 03AB  
                   l1547 03A1                     l1539 038E                     l2195 0291  
                   l2187 020F                     l2179 01A2                     l2291 07B5  
                   l2283 0795                     l2275 0772                     l2267 0749  
                   l2259 0730                     l1483 0F83                     l1475 0F6C  
                   l1467 0F50                     l1459 0F3C                     l2099 0D84  
                   l2371 06F6                     l2363 06E0                     l2355 06A2  
                   l2347 0666                     l2339 064C                     l1709 05B4  
                   l1653 04F7                     l1637 0485                     l1629 0474  
                   l1645 0498                     l1581 03E0                     l1573 03D8  
                   l1557 03B0                     l1565 03C0                     l1549 03A2  
                   l2197 029F                     l2189 023A                     l1493 0F9C  
                   l2285 07AB                     l2277 077D                     l2269 0750  
                   l1477 0F73                     l1469 0F54                     l2373 06F9  
                   l2357 06A8                     l2349 0675                     l2365 06E6  
                   l1671 053F                     l1663 052A                     l1647 04AE  
                   l1655 0506                     l1639 0489                     l1591 03EA  
                   l1583 03E2                     l1575 03DA                     l1567 03CE  
                   l1559 03B5                     l2199 02A8                     l1495 0FAF  
                   l1487 0F88                     l2287 07B0                     l2279 0781  
                   l1479 0F79                     l1911 0DD8                     l2295 0DFB  
                   l2375 06FF                     l2367 06ED                     l2359 06B0  
                   _ADC1 006C                     _ADC2 006A                     l1681 054D  
                   l1673 0541                     l1665 0533                     l1657 051C  
                   l1649 04EC                     l1593 03EC                     l1585 03E4  
                   l1577 03DC                     l1569 03D2                     l1497 0FB0  
                   l1489 0F93                     l2289 07B4                     l1921 0DDF  
                   l1913 0DD9                     l2297 0E27                     l2369 06F0  
                   _ADC3 0068                     _ADC4 0066                     l1691 0564  
                   l1683 0551                     l1675 0546                     l1667 0537  
                   l1659 0521                     l1595 03EE                     l1587 03E6  
                   l1579 03DE                     l1499 0FB8                     l2299 0E69  
                   l1931 0DEA                     l1923 0DE0                     l1915 0DDA  
                   l1907 0DD0                     l1693 0572                     l1685 0557  
                   l1669 053C                     l1677 0548                     l1597 03F0  
                   l1589 03E8                     l1941 0DF5                     l1933 0DEB  
                   l1925 0DE3                     l1917 0DDD                     l1909 0DD6  
                   l1695 0576                     l1679 054C                     l1599 03F2  
                   l1943 0DF6                     l1935 0DEC                     l1927 0DE5  
                   l1919 0DDE                     l1697 0594                     l1689 055F  
                   l1945 0DF7                     l1937 0DF0                     l1929 0DE9  
                   l1961 0D65                     l1699 059D                     l1947 0DF8  
                   l1939 0DF4                     l1971 0D73                     l1963 0D69  
                   l1955 0D5B                     l1949 0DF9                     l1973 0D74  
                   l1965 0D6B                     l1957 0D5F                     ?_map 002F  
                   l1975 0D76                     l1967 0D6D                     l1959 0D61  
                   l1969 0D6E                     _ADIF 0066                     ?_isr 0070  
                   u2000 0557                     u2001 0556                     u2010 055E  
                   u2011 055D                     u2100 05C3                     u2020 0564  
                   u2101 05C2                     u2021 0563                     u2030 0576  
                   u2031 0575                     u2040 0585                     u3001 021E  
                   u2050 0594                     u3010 0246                     u3002 0225  
                   u2051 0593                     u3003 022C                     u2060 059D  
                   u3100 02C5                     _IOCB 0096                     u2061 059C  
                   u2045 0580                     u3101 02C4                     u3021 0252  
                   u2070 05A2                     u3110 02D9                     u3030 026E  
                   u3022 0259                     u1510 0F65                     u2071 05A1  
                   u3111 02D8                     u3023 0260                     u3015 0241  
                   u1511 0F64                     u2080 05AF                     u3120 02E0  
                   u1600 0FD7                     u3200 0710                     u2081 05AE  
                   u3121 02DF                     u3041 027A                     u1601 0FD6  
                   u3201 070F                     u1505 0F55                     u2090 05B4  
                   u3130 02E6                     u3042 0281                     u1610 0FDE  
                   u3210 0730                     u1530 0F79                     u1450 0F26  
                   u2091 05B3                     u3131 02E5                     u3043 0288  
                   u3035 0269                     u1611 0FDD                     u3211 072F  
                   u1531 0F78                     u1515 0F61                     u1451 0F25  
                   u1700 03B0                     u3140 02F8                     u3300 07A0  
                   u1540 0F7E                     u1460 0F31                     u1701 03AF  
                   u3141 02F7                     u1541 0F7D                     u1525 0F6D  
                   u1461 0F30                     u1710 03B5                     u3150 0307  
                   u3070 02AC                     u1630 0FEF                     u1550 0F93  
                   u3310 07B0                     u3230 074F                     u1470 0F42  
                   u1711 03B4                     u3071 02AB                     u3055 028A  
                   u1631 0FEE                     u1551 0F92                     u3311 07AF  
                   u3231 074E                     u1471 0F41                     u1800 044B  
                   u1720 03CE                     u3160 0324                     u1640 0FF4  
                   u1560 0FAA                     u3320 07B4                     u3400 06FF  
                   u1801 044A                     u1721 03CD                     u3161 0323  
                   u3065 02A1                     u1641 0FF3                     u1625 0FE1  
                   u3321 07B3                     u3305 079B                     u3225 0741  
                   u3401 06FE                     u1810 044F                     u1730 03D2  
                   u1650 037A                     u3170 033E                     u3090 02C0  
                   u1570 0FBE                     u3250 0771                     u1490 0F54  
                   u3330 05DB                     u1811 044E                     u1731 03D1  
                   u1651 0379                     u3171 033D                     u3155 0302  
                   u3091 02BF                     u1571 0FBD                     u3251 0770  
                   u1491 0F53                     u3331 05DA                     u1900 04D9  
                   u1820 0454                     u1740 040C                     u1660 0380  
                   u3180 035A                     u1580 0FC5                     u3340 05ED  
                   u1901 04DA                     u1821 0453                     u1741 040B  
                   u1661 037F                     u3181 0359                     u3165 0320  
                   u3085 02AF                     u1581 0FC4                     u1565 0FA5  
                   u3245 0763                     u1485 0F46                     u3341 05EC  
                   u1910 04F7                     u1902 04DF                     u1750 0417  
                   u1670 0385                     u3270 0781                     u3190 070C  
                   u2630 0D7B                     u3350 0629                     u1911 04F6  
                   u1903 04E0                     u1831 0466                     u1751 0415  
                   u1671 0384                     u3175 033A                     u3271 0780  
                   u3191 070B                     u2631 0D7A                     u3351 0628  
                   u1920 051C                     u1840 0478                     u1832 046D  
                   u1760 0418                     u1680 03A1                     u3280 0787  
                   u3360 0665                     u1921 051B                     u1841 0477  
                   u1833 0474                     u1745 0408                     u1681 03A0  
                   u3281 0786                     u3265 0776                     u3361 0664  
                   u3417 05E4                     u1930 0521                     u1850 047C  
                   u1770 0428                     u1690 03AA                     u3290 078B  
                   u2810 0DA2                     u3370 06AF                     u1931 0520  
                   u1851 047B                     u1771 0427                     u1691 03A9  
                   u1595 0FC7                     u3291 078A                     u2811 0DA1  
                   u3371 06AE                     u3427 0614                     u1860 0489  
                   u1780 0435                     u2820 0035                     u3380 06ED  
                   u1861 0488                     u1781 0434                     u2901 00D3  
                   u2821 0034                     u2805 0D96                     u3381 06EC  
                   u3437 0620                     u1950 0537                     u2750 0DB7  
                   u2902 00DA                     u2830 003B                     u3390 06F6  
                   u1951 0536                     u2751 0DB6                     u2911 00EF  
                   u2903 00E1                     u2831 003A                     u3391 06F5  
                   u3447 0650                     u1960 053C                     u1880 04AE  
                   u2912 00F6                     u2840 0040                     u1961 053B  
                   u1945 052C                     u1881 04AD                     u2921 0119  
                   u2913 00FD                     u2841 003F                     u3457 065C  
                   u1970 0546                     u2770 0DCB                     u2922 0120  
                   u2850 005F                     u1971 0545                     u1891 04C5  
                   u1883 04AA                     u1875 048C                     u1795 0438  
                   u2771 0DCA                     u2931 0135                     u2923 0127  
                   u2851 005E                     u3467 069A                     u1980 054C  
                   u1892 04C6                     u2932 013C                     u2860 0065  
                   u2780 0D88                     u1981 054B                     u1893 04CB  
                   u2765 0DBE                     u2933 0143                     u2861 0064  
                   u2781 0D87                     u3477 06A6                     u1990 0551  
                   u1894 04CC                     u2870 006A                     u1991 0550  
                   u1895 04D1                     u2951 0169                     u2871 0069  
                   u3487 06E4                     u1896 04D2                     u2952 0170  
                   u2880 0081                     u2961 0194                     u2953 0177  
                   u2945 0145                     u2881 0080                     u3497 0E2B  
                   u2962 019B                     u2890 0086                     u2963 01A2  
                   u2891 0085                     u2795 0D8F                     u2981 01C8  
                   u2982 01CF                     u2991 01F3                     u2983 01D6  
                   u2975 01A4                     u2992 01FA                     u2993 0201  
                   _MODO 006E                     _TMR0 0001                     _main 05C5  
                   btemp 007E                     start 000C                    ??_map 0037  
                  ??_isr 0072             ?_estado_alto 0070            ___fltol@sign1 0064  
        __end_of___fladd 05C5                    ?_main 0070          __end_of___awdiv 0F88  
        __end_of___flmul 036D          __end_of___fltol 1000          ___awdiv@divisor 0026  
                  i1l104 07F4                    i1l144 0D4B                    i1l146 0D5A  
        ___awdiv@counter 002B                    _PORTA 0005                    _PORTB 0006  
                  _PORTC 0007                    _PORTD 0008                    _TRISA 0085  
                  _TRISB 0086                    _TRISC 0087                    _TRISD 0088  
        __end_of_conv_s1 0EC4          __end_of_conv_s2 0F1F                    _setup 0DD0  
           conv_s1@valor 00A4             conv_s2@valor 00A4                    pclath 000A  
                  status 0003                    wtemp0 007E          __initialization 000F  
           __end_of_main 0704                   ??_main 00A6                   _ADRESH 001E  
                 _CCPR1L 0015                   _CCPR2L 001B         ___awdiv@dividend 0028  
                 ?_setup 0070                   _ANSELH 0189                   i1l2001 07E2  
                 i1l2003 07E5                   i1l2005 07E9                   i1l2007 07EF  
                 i1l2009 07F3                   i1l1901 0D4A                   i1l1903 0D4E  
                 i1l1905 0D54                   i1l1991 07C7                   i1l1993 07C8  
                 i1l1985 07BE                   i1l1995 07D3                   i1l1987 07C2  
                 i1l1997 07D6                   i1l1989 07C3                   i1l1999 07D7  
                 u262_20 0D5A                   u262_21 0D59                   u264_20 07C2  
                 u264_21 07C1                   u265_20 07E9                   u265_21 07E8  
                 u266_20 07EF                   u266_21 07EE                   _SERVO1 0077  
                 _SERVO2 0075                   _SERVO3 00A2                   _SERVO4 00A0  
       __end_of___xxtofl 07BE                ??___fladd 0050                   ___wmul 0D80  
              ??___awdiv 002A                ??___flmul 0036                ??___fltol 0060  
                 map@ADC 003A         ___awdiv@quotient 002D                ??_conv_s1 0075  
              ??_conv_s2 0075         __end_of_setupADC 0E2E         __end_of_setupPWM 0D80  
                 saved_w 007E             ___xxtofl@arg 002A             ___xxtofl@exp 0029  
           ___xxtofl@val 0020  __end_of__initialization 0024               ___fltol@f1 005C  
         __pcstackCOMMON 0070            __end_of_setup 0DFB           _OPTION_REGbits 0081  
                ??_setup 0075               __pbssBANK0 0066               __pbssBANK1 00A0  
      __end_of__Umul8_16 0DD0               __pmaintext 05C5                  ?___wmul 0020  
             __pintentry 0004                ?___xxtofl 0020                ?_setupADC 0070  
              ?_setupPWM 0070                  ___fladd 036D                  ___awdiv 0F1F  
                ___flmul 0028                  ___fltol 0F88                _ANSELbits 0188  
                __ptext1 0D5B                  __ptext2 0DFB                  __ptext3 0DD0  
                __ptext4 0E2E                  __ptext5 0D80                  __ptext6 0F1F  
                __ptext7 0EC4                  __ptext8 0E69                  __ptext9 0704  
                _conv_s1 0E69                  _conv_s2 0EC4                _T2CONbits 0012  
             ??___xxtofl 0024     end_of_initialization 0024               ??_setupADC 0020  
             ??_setupPWM 0075                _PORTBbits 0006                _PORTCbits 0007  
              _PORTDbits 0008              ___fladd@grs 005B            ___xxtofl@sign 0028  
              _TRISAbits 0085                _TRISCbits 0087              ___flmul@grs 003D  
            _CCP1CONbits 0017              _CCP2CONbits 001D           estado_alto@seg 0070  
         __end_of___wmul 0DA7      start_initialization 000F              __end_of_map 0E69  
            __end_of_isr 07FB                 ??___wmul 0075                __Umul8_16 0DA7  
          ??_estado_alto 0072                ___fladd@a 004C                ___fladd@b 0048  
              ___flmul@a 0032                ___flmul@b 002E              __pbssCOMMON 0075  
              ___latbits 0002            __pcstackBANK0 0020            __pcstackBANK1 00A4  
               ?___fladd 0048                 ?___awdiv 0026                 ?___flmul 002E  
               ?___fltol 005C               ?__Umul8_16 0020                 ?_conv_s1 00A4  
               ?_conv_s2 00A4      __end_of_estado_alto 0D5B        interrupt_function 0004  
         ___wmul@product 0024                 _PIR1bits 000C               _ADCON0bits 001F  
             _ADCON1bits 009F        ___wmul@multiplier 0020              ??__Umul8_16 0022  
            _estado_alto 0D4A                 ___xxtofl 0704                 __ptext10 0F88  
               __ptext11 0028                 __ptext12 0DA7                 __ptext13 036D  
               __ptext14 07BE                 __ptext15 0D4A                 _setupADC 0DFB  
               _setupPWM 0D5B               _INTCONbits 000B                 intlevel1 0000  
             _OSCCONbits 008F   __Umul8_16@multiplicand 0020            ___fladd@signs 0058  
           ___fladd@aexp 0059             ___fladd@bexp 005A           map@entrada_max 0031  
         map@entrada_min 002F     __Umul8_16@multiplier 0028        __Umul8_16@product 0024  
